(lp1
(dp2
S'detailed'
p3
S'EQUAL'
p4
sS'not_detailed'
p5
S'EQUAL'
p6
sS'score'
p7
I100
sa(dp8
g3
S'EQUAL'
p9
sg5
S'EQUAL'
p10
sg7
I100
sa(dp11
g3
S'EQUAL'
p12
sg5
S'EQUAL'
p13
sg7
I100
sa(dp14
g3
S'EQUAL'
p15
sg5
S'EQUAL'
p16
sg7
I100
sa(dp17
g3
S'EQUAL'
p18
sg5
S'EQUAL'
p19
sg7
I100
sa(dp20
g3
S'EQUAL'
p21
sg5
S'EQUAL'
p22
sg7
I100
sa(dp23
g3
S'EQUAL (JI 100%)'
p24
sg5
S'EQUAL (JI 100%)'
p25
sg7
I100
sa(dp26
g3
S'EQUAL'
p27
sg5
S'EQUAL'
p28
sg7
I100
sa(dp29
g3
S'EQUAL'
p30
sg5
S'EQUAL'
p31
sg7
I100
sa(dp32
g3
S"\nDELETED set([])\n---\nADDED set(['com.adwo.adsdk.AdwoAdBrowserActivity'])"
p33
sg5
S'CHANGED (JI 66.67%)'
p34
sg7
F66.670000000000002
sa(dp35
g3
S'EQUAL (JI 100%)'
p36
sg5
S'EQUAL (JI 100%)'
p37
sg7
I100
sa(dp38
g3
S'EQUAL (JI 100%)'
p39
sg5
S'EQUAL (JI 100%)'
p40
sg7
I100
sa(dp41
g3
S'EQUAL (JI 100%)'
p42
sg5
S'EQUAL (JI 100%)'
p43
sg7
I100
sa(dp44
g3
S'EQUAL (JI 100%)'
p45
sg5
S'EQUAL (JI 100%)'
p46
sg7
I100
sa(dp47
g3
S'EQUAL (JI 100%)'
p48
sg5
S'EQUAL (JI 100%)'
p49
sg7
I100
sa(dp50
g3
S'EQUAL (JI 100%)'
p51
sg5
S'EQUAL (JI 100%)'
p52
sg7
I100
sa(dp53
g3
S'EQUAL (JI 100%)'
p54
sg5
S'EQUAL (JI 100%)'
p55
sg7
I100
sa(dp56
g3
S'EQUAL (JI 100%)'
p57
sg5
S'EQUAL (JI 100%)'
p58
sg7
I100
sa(dp59
g3
S'EQUAL (JI 100%)'
p60
sg5
S'EQUAL (JI 100%)'
p61
sg7
I100
sa(dp62
g3
S'EQUAL (JI 100%)'
p63
sg5
S'EQUAL (JI 100%)'
p64
sg7
I100
sa.