(lp1
(dp2
S'detailed'
p3
S'EQUAL'
p4
sS'not_detailed'
p5
S'EQUAL'
p6
sS'score'
p7
I100
sa(dp8
g3
S'EQUAL'
p9
sg5
S'EQUAL'
p10
sg7
I100
sa(dp11
g3
S'EQUAL'
p12
sg5
S'EQUAL'
p13
sg7
I100
sa(dp14
g3
S'EQUAL'
p15
sg5
S'EQUAL'
p16
sg7
I100
sa(dp17
g3
S'EQUAL'
p18
sg5
S'EQUAL'
p19
sg7
I100
sa(dp20
g3
S'EQUAL'
p21
sg5
S'EQUAL'
p22
sg7
I100
sa(dp23
g3
S"\nDELETED set([])\n---\nADDED set(['android.permission.ACCESS_COARSE_LOCATION'])"
p24
sg5
S'CHANGED (JI 75.0%)'
p25
sg7
F75
sa(dp26
g3
S'EQUAL'
p27
sg5
S'EQUAL'
p28
sg7
I100
sa(dp29
g3
S'EQUAL'
p30
sg5
S'EQUAL'
p31
sg7
I100
sa(dp32
g3
S"\nDELETED set([])\n---\nADDED set(['com.gameneeti.game.newyearjigsaw.mobi.vserv.android.ads.VservAdManager', 'com.gameneeti.game.newyearjigsaw.mobi.vserv.org.ormma.view.OrmmaActionHandler', 'com.gameneeti.game.newyearjigsaw.mobi.vserv.org.ormma.view.Browser'])"
p33
sg5
S'CHANGED (JI 40.0%)'
p34
sg7
F40
sa(dp35
g3
S"\nDELETED set([u'assets/loading2.png', u'assets/loading1.png', u'META-INF/CERT.SF', u'assets/skip1.png', u'META-INF/CERT.RSA'])\n---\nADDED set([u'res/drawable-mdpi/vserv_abs__list_focused_holo.9.png', u'res/drawable-hdpi/vserv_abs__spinner_pressed_holo_light.9.png', u'res/drawable-hdpi/vserv_abs__tab_unselected_pressed_focused_holo.9.png', u'res/layout/vserv_abs__simple_spinner_item.xml', u'res/drawable-mdpi/vserv_abs__list_selector_disabled_holo_light.9.png', u'res/drawable-hdpi/vserv_ic_menu_exit.png', u'res/drawable-hdpi-v11/vserv_progress.png', u'res/drawable-hdpi/vserv_abs__list_focused_holo.9.png', u'res/drawable-xhdpi/vserv_progress.png', u'res/drawable-mdpi/vserv_abs__ab_stacked_transparent_light_holo.9.png', u'res/drawable/vserv_abs__list_selector_background_transition_holo_light.xml', u'res/drawable-hdpi/vserv_abs__cab_ic_close_pressed_holo.png', u'res/layout-land/vserv_abs__screen_action_bar_overlay.xml', u'res/layout/vserv_abs__action_bar_tab_layout.xml', u'res/drawable-hdpi/vserv_abs__list_selector_disabled_holo_dark.9.png', u'res/layout/vserv_abs__screen_action_bar_inline.xml', u'res/layout/vserv_abs__action"
p36
sg5
S'CHANGED (JI 30.26%)'
p37
sg7
F30.260000000000002
sa(dp38
g3
S'EQUAL (JI 100%)'
p39
sg5
S'EQUAL (JI 100%)'
p40
sg7
I100
sa(dp41
g3
S'EQUAL (JI 100%)'
p42
sg5
S'EQUAL (JI 100%)'
p43
sg7
I100
sa(dp44
g3
S"\nDELETED set([])\n---\nADDED set([u'Ljava/io/FileNotFoundException;', u'Lcom/gameneeti/game/newyearjigsaw/mobi/vserv/android/support/v4/app/w;', u'Landroid/widget/ImageView;', u'Lcom/gameneeti/game/newyearjigsaw/mobi/vserv/org/ormma/view/g;', u'Landroid/text/TextUtils;', u'Ljava/lang/reflect/Modifier;', u'Lcom/gameneeti/game/newyearjigsaw/mobi/vserv/com/actionbarsherlock/internal/widget/b;', u'Lcom/gameneeti/game/newyearjigsaw/mobi/vserv/android/support/v4/content/ModernAsyncTask;', u'Ljava/util/LinkedHashMap;', u'Lcom/gameneeti/game/newyearjigsaw/mobi/vserv/com/actionbarsherlock/internal/app/SherlockActivity;', u'Ljava/util/concurrent/FutureTask;', u'Lcom/gameneeti/game/newyearjigsaw/mobi/vserv/android/support/v4/view/j;', u'Lcom/gameneeti/game/newyearjigsaw/mobi/vserv/org/ormma/controller/c;', u'Landroid/os/Message;', u'Lcom/gameneeti/game/newyearjigsaw/mobi/vserv/android/support/v4/app/ActionBar$LayoutParams;', u'Ljava/io/ObjectInputStream;', u'Ljava/util/jar/JarFile;', u'Lcom/gameneeti/game/newyearjigsaw/mobi/"
p45
sg5
S'CHANGED (JI 26.3%)'
p46
sg7
F26.300000000000001
sa(dp47
g3
S"\nDELETED set([u'Lcom/gameneeti/game/newyearjigsaw/Group;->HandleLoading(Landroid/view/MotionEvent;)Z'])\n---\nADDED set([u'Lcom/gameneeti/game/newyearjigsaw/mobi/vserv/com/actionbarsherlock/internal/view/menu/MenuBuilder;->setCallback(Lcom/gameneeti/game/newyearjigsaw/mobi/vserv/com/actionbarsherlock/internal/view/menu/MenuBuilder$Callback;)V', u'Lcom/google/android/apps/analytics/Transaction;-><init>(Lcom/google/android/apps/analytics/Transaction$Builder;)V', u'Lcom/gameneeti/game/newyearjigsaw/mobi/vserv/android/support/v4/content/AsyncTaskLoader;->onCanceled(Ljava/lang/Object;)V', u'Lcom/gameneeti/game/newyearjigsaw/mobi/vserv/android/support/v4/app/FragmentActivity;->a(I)V', u'Lcom/gameneeti/game/newyearjigsaw/mobi/vserv/android/support/v4/app/ActionBar;->setDisplayShowHomeEnabled(Z)V', u'Lcom/gameneeti/game/newyearjigsaw/mobi/vserv/com/actionbarsherlock/internal/app/ActionBarImpl;->setDisplayShowCustomEnabled(Z)V', u'Lcom/gameneeti/game/newyearjigsaw/mobi/vserv/android/support/v4/content/CursorLoader;->d()V', u'Lcom/gameneeti/game/newyearjigsaw/mobi/vserv/org/ormma/view/OrmmaView;->onAttachedTo"
p48
sg5
S'CHANGED (JI 14.51%)'
p49
sg7
F14.51
sa(dp50
g3
S"\nDELETED set([u'Lcom/gameneeti/game/newyearjigsaw/Group;->HandleLoading(Landroid/view/MotionEvent;)Z'])\n---\nADDED set([])"
p51
sg5
S'CHANGED (JI 99.74%)'
p52
sg7
F99.739999999999995
sa(dp53
g3
S"\nDELETED set([u'Lcom/gameneeti/game/newyearjigsaw/Group;->HandleLoading(Landroid/view/MotionEvent;)Z'])\n---\nADDED set([u'Lcom/gameneeti/game/newyearjigsaw/mobi/vserv/com/actionbarsherlock/internal/view/menu/MenuBuilder;->setCallback(Lcom/gameneeti/game/newyearjigsaw/mobi/vserv/com/actionbarsherlock/internal/view/menu/MenuBuilder$Callback;)V', u'Landroid/widget/TextView;->setTextAppearance(Landroid/content/Context; I)V', u'Ljava/io/OutputStream;->write([B)V', u'Lorg/xmlpull/v1/XmlPullParserFactory;->setNamespaceAware(Z)V', u'Lcom/gameneeti/game/newyearjigsaw/mobi/vserv/android/support/v4/app/FragmentActivity;->a(I)V', u'Lcom/gameneeti/game/newyearjigsaw/mobi/vserv/com/actionbarsherlock/internal/app/ActionBarImpl;->setDisplayShowCustomEnabled(Z)V', u'Lcom/gameneeti/game/newyearjigsaw/mobi/vserv/org/ormma/view/OrmmaView;->onAttachedToWindow()V', u'Lcom/google/android/apps/analytics/Event;->setVisits(I)V', u'Landroid/webkit/WebViewClient;->onReceivedError(Landroid/webkit/WebView; I Ljava/lang/String; Ljava/lang/String;)V', u'Lcom/gameneeti/game/newyearjigsaw/mobi/vserv/android/support/v4/util/LruCache"
p54
sg5
S'CHANGED (JI 18.83%)'
p55
sg7
F18.829999999999998
sa(dp56
g3
S"\nDELETED set([u'Lcom/gameneeti/game/newyearjigsaw/Group;->HandleLoading(Landroid/view/MotionEvent;)Z'])\n---\nADDED set([u'Landroid/widget/TextView;->setTextAppearance(Landroid/content/Context; I)V', u'Landroid/widget/FrameLayout;->onTouchEvent(Landroid/view/MotionEvent;)Z', u'Landroid/webkit/WebViewClient;->onReceivedError(Landroid/webkit/WebView; I Ljava/lang/String; Ljava/lang/String;)V', u'Ljava/util/List;->get(I)Ljava/lang/Object;', u'Landroid/app/Activity;->setTitle(Ljava/lang/CharSequence;)V', u'Landroid/os/Bundle;->putParcelable(Ljava/lang/String; Landroid/os/Parcelable;)V', u'Landroid/content/Intent;->setAction(Ljava/lang/String;)Landroid/content/Intent;', u'Landroid/content/SharedPreferences;->getString(Ljava/lang/String; Ljava/lang/String;)Ljava/lang/String;', u'Ljava/io/FileOutputStream;-><init>(Ljava/io/File;)V', u'Ljava/net/HttpURLConnection;->setDoOutput(Z)V', u'Landroid/webkit/WebView;->setWebChromeClient(Landroid/webkit/WebChromeClient;)V', u'Landroid/webkit/WebViewClient;->onPageStarted(Landroid/webkit/WebView; Ljava/lang/String; Landroid/graphics/Bitmap;)V', u'Landroid/graphics/Bi"
p57
sg5
S'CHANGED (JI 71.28%)'
p58
sg7
F71.280000000000001
sa(dp59
g3
S'\nDELETED set([u\'skip1.png\', u\'loading2.png\', u\'loading1.png\'])\n---\nADDED set([u\'tiltChange\', u\'&tz=\', u\'{ x : "\', u\'vservPostActionNotifyUrlPref\', u\'//android_asset/js/ormma.js\', u\'random_val\', u\': \', u\'abs__nav_list\', u\'getAdFile.txt\', u\'<mn>\', u\' mTag=\', u\'Failure saving state: \', u\'bkgrnd\', u\'gn\', u", \'audio\'", u\'Bad Phone Number\', u\'account_name\', u\'&utmul=%s-%s\', u\'&lc=\', u\' \', u\' did not call through to super.onDestroyView()\', u\'dtstart\', u\'&sw=\', u\'item_name\', u\'vnd.android.cursor.item/email_v2\', u\'cancelLabel\', u\'/__utm.gif\', u\'Host\', u\'tm\', u\'cv_index\', u\'&ai=\', u\'this should only be called when the cursor is valid\', u\'vserv.download\', u\'&cea=\', u\'&showat=end\', u\'Data connection unavailable\', u\' #\', u\'  \', u\' for fragment \', u\' defaultPosition: { x:\', u\'X-VSERV-AD-TYPE\', u\'DROP TABLE IF EXISTS referrer;\', u\' %\', u\'showAdOnlyAtExit\', u" \'%s\' TEXT NOT NULL,", u\'none\', u\'vnd.android-dir/mms-sms\', u\' mStateSaved=\', u\'&ts=\', u\' mRetaining=\', u" \'%s\' TEXT NOT NULL);", u\'Pre-Eclair does not support multiple pointers\', u\'MyNotifierLog\', u\'&ap=\', u\'ORMMADis'
p60
sg5
S'CHANGED (JI 30.1%)'
p61
sg7
F30.100000000000001
sa(dp62
g3
S"\nDELETED set(['Lcom/gameneeti/game/newyearjigsaw/Start;->counterLoading I [access_flags=0x0]\\n', 'Lcom/gameneeti/game/newyearjigsaw/GameRenderer;->mTexLoading [Lcom/gameneeti/game/newyearjigsaw/SimplePlane; [access_flags=0x0]\\n'])\n---\nADDED set(['Lcom/gameneeti/game/newyearjigsaw/mobi/vserv/com/actionbarsherlock/internal/view/menu/ActionMenuItemView;->c Landroid/widget/FrameLayout; [access_flags=private]\\n', 'Lcom/gameneeti/game/newyearjigsaw/mobi/vserv/org/ormma/view/q;->a Lcom/gameneeti/game/newyearjigsaw/mobi/vserv/org/ormma/view/OrmmaView; [access_flags=private synthetic]\\n', 'Lcom/gameneeti/game/newyearjigsaw/mobi/vserv/android/ads/VservAdController;->w Lcom/gameneeti/game/newyearjigsaw/mobi/vserv/android/ads/IAddCallback; [access_flags=private]\\n', 'Lcom/gameneeti/game/newyearjigsaw/mobi/vserv/android/support/v4/content/a;->a Z [access_flags=0x0]\\n', 'Lcom/gameneeti/game/newyearjigsaw/mobi/vserv/org/ormma/controller/listeners/AccelListener;->n Z [access_flags=private]\\n', 'Lcom/gameneeti/game/newyearjigsaw/mobi/vserv/android/support/v4/app/Fragment;->A Z [access_flags=0x0]\\n', 'Lcom/gameneeti/game/newyearjigsaw/mobi/vserv/android/support/v4/content/Loader;->f Z [access_flags=private]\\n', 'Lcom/google/android/apps/an"
p63
sg5
S'CHANGED (JI 20.09%)'
p64
sg7
F20.09
sa.