(lp1
(dp2
S'detailed'
p3
S'DIFFERENT: 12!=2'
p4
sS'not_detailed'
p5
S'CHANGED'
p6
sS'score'
p7
I0
sa(dp8
g3
S'DIFFERENT: 1.2!=1.02'
p9
sg5
S'CHANGED'
p10
sg7
I0
sa(dp11
g3
S'DIFFERENT: 8!=6'
p12
sg5
S'CHANGED'
p13
sg7
I0
sa(dp14
g3
S'EQUAL'
p15
sg5
S'EQUAL'
p16
sg7
I100
sa(dp17
g3
S'DIFFERENT: 16!=17'
p18
sg5
S'CHANGED'
p19
sg7
I0
sa(dp20
g3
S'DIFFERENT: 16!=17'
p21
sg5
S'CHANGED'
p22
sg7
I0
sa(dp23
g3
S"\nDELETED set(['android.permission.READ_EXTERNAL_STORAGE', 'android.permission.READ_PHONE_STATE', 'android.permission.ACCESS_WIFI_STATE'])\n---\nADDED set([])"
p24
sg5
S'CHANGED (JI 50.0%)'
p25
sg7
F50
sa(dp26
g3
S'DIFFERENT: com.andrebiasi.allblocksup!=com.icecreamstudio.AlphaRace'
p27
sg5
S'CHANGED'
p28
sg7
I0
sa(dp29
g3
S'DIFFERENT: All Blocks Up!=Alpha Race'
p30
sg5
S'CHANGED'
p31
sg7
I0
sa(dp32
g3
S"\nDELETED set(['com.ansca.corona.CoronaActivity', 'com.ansca.corona.purchasing.StoreActivity', 'com.ansca.corona.VideoActivity', 'com.ansca.corona.CameraActivity', 'com.tapfortap.TapForTapActivity'])\n---\nADDED set(['com.chartboost.sdk.CBImpressionActivity', 'com.heyzap.sdk.ads.HeyzapInterstitialActivity', 'com.chartboost.sdk.CBDialogActivity', 'com.unity3d.player.UnityPlayerNativeActivity', 'com.unity3d.player.UnityPlayerProxyActivity', 'com.unity3d.player.UnityPlayerActivity', 'com.heyzap.sdk.ads.HeyzapVideoActivity', 'com.unity3d.player.VideoPlayer'])"
p33
sg5
S'CHANGED (JI 0.0%)'
p34
sg7
F0
sa(dp35
g3
S"\nDELETED set(['assets/assets/images/leaves_01.png', 'lib/', 'lib/armeabi-v7a/libmpg123.so', 'assets/assets/images/fg_01@2x.png', 'assets/assets/images/logo.png', 'assets/Icon-72@2x.png', 'res/drawable/', 'assets/Icon-Small.png', 'res/drawable-xhdpi/', 'assets/Default-Portrait.png', 'res/drawable-ldpi/', 'assets/assets/audio/swoosh.wav', 'assets/', 'lib/armeabi-v7a/libgameNetwork.so', 'res/', 'res/drawable-xhdpi/ic_menu_camera.png', 'res/drawable-hdpi/ic_menu_refresh.png', 'res/drawable-mdpi/ic_maps_indicator_current_position_anim1.png', 'res/drawable-ldpi-v9/', 'res/drawable-ldpi/ic_maps_indicator_current_position.png', 'res/drawable-ldpi/ic_maps_indicator_current_position_anim1.png', 'res/drawable-xhdpi/ic_maps_indicator_current_position.png', 'assets/assets/images/platform@4x.png', 'res/drawable-ldpi/facebook_icon.png', 'lib/armeabi-v7a/liblicensing.so', 'res/drawable-hdpi/ic_menu_camera.png', 'lib/armeabi-v7a/libjnlua5.1.so', 'assets/assets/images/platform.png', 'assets/assets/images/logo@2x\n---\nADDED set(['assets/bin/Data/sharedassets0.assets.split14', 'assets/bin/Data/sharedassets0.assets.split9', 'assets/bin/Data/sharedassets0.assets.split8', 'assets/bin/Data/sharedassets0.assets.split7', 'assets/bin/Data/sharedassets0.assets.split6', 'assets/bin/Data/sharedassets0.assets.split5', 'assets/bin/Data/sharedassets0.assets.split4', 'assets/bin/Data/sharedassets0.assets.split3', 'assets/bin/Data/sharedassets0.assets.split2', 'assets/bin/Data/sharedassets0.assets.split1', 'assets/bin/Data/sharedassets0.assets.split0', 'assets/bin/Data/Managed/mscorlib.dll', 'res/drawable-xhdpi/app_icon.png', 'assets/bin/Data/Managed/Assembly-UnityScript.dll', 'res/drawable-ldpi/app_icon.png', 'assets/bin/Data/Managed/EasyRoads3D.dll', 'assets/bin/Data/Managed/Assembly-UnityScript-firstpass.dll', 'assets/bin/Data/PlayerConnectionConfigFile', 'assets/bin/Data/Managed/P31RestKit.dll', 'lib/armeabi-v7a/libunity.so', 'assets/bin/Data/unity default resources', 'assets/bin/Data/sharedassets0.assets.split13', '"
p36
sg5
S'CHANGED (JI 1.78%)'
p37
sg7
F1.78
sa(dp38
g3
S"\nDELETED set(['com.ansca.corona.CoronaService'])\n---\nADDED set([])"
p39
sg5
S'CHANGED (JI 0.0%)'
p40
sg7
F0
sa(dp41
g3
S"\nDELETED set(['com.ansca.corona.notifications.AlarmManagerBroadcastReceiver', 'com.ansca.corona.notifications.GoogleCloudMessagingBroadcastReceiver', 'com.ansca.corona.purchasing.GoogleStoreBroadcastReceiver', 'com.ansca.corona.SystemStartupBroadcastReceiver', 'com.ansca.corona.notifications.StatusBarBroadcastReceiver'])\n---\nADDED set(['com.heyzap.sdk.ads.PackageAddedReceiver'])"
p42
sg5
S'CHANGED (JI 0.0%)'
p43
sg7
F0
sa(dp44
g3
S"\nDELETED set([u'Lcom/ansca/corona/ViewManager;', u'Lcom/ansca/corona/CoronaSensorManager$AccelerometerMonitor$TimerHandler;', u'Lcom/ansca/corona/Controller$8;', u'Lcom/facebook/android/AsyncFacebookRunner;', u'Lcom/facebook/android/FbDialog;', u'Lcom/naef/jnlua/JavaModule$IPairs$ArrayNext;', u'Ljava/util/Calendar;', u'Ljava/util/zip/ZipException;', u'Lcom/naef/jnlua/script/LuaScriptEngine$ReaderInputStream;', u'LCoronaProvider/licensing/google/LuaLoader$LoadExpansionFilesWrapper;', u'Lcom/flurry/android/c;', u'Lcom/ansca/corona/purchasing/StoreProxy;', u'Lcom/naef/jnlua/JavaModule$Proxy;', u'Lcom/ansca/corona/CoronaWebView$1;', u'Lcom/ansca/corona/events/GyroscopeEvent;', u'Lcom/ansca/corona/R$raw;', u'Lcom/flurry/android/d;', u'Ljava/nio/charset/CharsetEncoder;', u'Lcom/ansca/corona/CoronaActivity$TakePictureWithExternalActivityResultHandler;', u'Lcom/tapfortap/Interstitial$4;', u'Lcom/ansca/corona/opengl/GLSurfaceView$DefaultWindowSurfaceFactory;', u'Lcom/ansca/corona/events/AdRequestEvent;'\n---\nADDED set([u'Lcom/chartboost/sdk/Chartboost$1;', u'Lcom/heyzap/sdk/extensions/ads/UnityHelper;', u'Ljava/io/StringReader;', u'Lcom/heyzap/http/AsyncHttpRequest;', u'Lcom/chartboost/sdk/impl/s;', u'Landroid/graphics/drawable/shapes/RoundRectShape;', u'Lcom/heyzap/http/SerializableCookie;', u'Lorg/eclipse/paho/client/mqttv3/internal/wire/MqttPubRel;', u'Lorg/eclipse/paho/client/mqttv3/internal/ClientComms;', u'Lcom/heyzap/sdk/ads/Manager$1;', u'Lcom/chartboost/sdk/impl/z;', u'Lcom/chartboost/sdk/impl/n$a;', u'Lorg/apache/http/client/methods/HttpEntityEnclosingRequestBase;', u'Ljava/net/NetworkInterface;', u'Lcom/unity3d/player/UnityPlayer$17;', u'Lcom/heyzap/sdk/extensions/ads/UnityHelper$1;', u'Lcom/chartboost/sdk/impl/ao;', u'Lcom/heyzap/http/AsyncHttpClient$InflatingEntity;', u'Lorg/eclipse/paho/client/mqttv3/internal/wire/MqttPubAck;', u'Lcom/unity3d/player/k;', u'Lcom/chartboost/sdk/impl/o$a;', u'Lcom/heyzap/sdk/ads/VideoControlView$3;', u'Landroid/text/SpannableString;', u'Lcom/chartboos"
p45
sg5
S'CHANGED (JI 14.83%)'
p46
sg7
F14.83
sa(dp47
g3
S"\nDELETED set([u'Lcom/ansca/corona/ViewManager;->removeAllMapViewMarkers(I)V', u'Lcom/naef/jnlua/script/LuaScriptEngine;->loadChunk(Ljava/lang/String; Ljavax/script/ScriptContext;)V', u'Lcom/tapfortap/TapForTap$Gender;->valueOf(Ljava/lang/String;)Lcom/tapfortap/TapForTap$Gender;', u'Lcom/naef/jnlua/script/LuaScriptEngine;->getScriptException(Lcom/naef/jnlua/LuaException;)Ljavax/script/ScriptException;', u'Lcom/ansca/corona/Controller$4;->run()V', u'Lcom/flurry/android/a;->run()V', u'Lcom/ansca/corona/MapView;->removeAllMarkers()V', u'Lcom/naef/jnlua/LuaState;->isCFunction(I)Z', u'Lcom/ansca/corona/CoronaLuaErrorHandler$2;->run()V', u'Lcom/ansca/corona/opengl/GLSurfaceView$GLThread;->access$1102(Lcom/ansca/corona/opengl/GLSurfaceView$GLThread; Z)Z', u'Lcom/ansca/corona/ViewManager$27;->run()V', u'Lcom/ansca/corona/Controller;->saveBitmap(Landroid/graphics/Bitmap; Landroid/net/Uri;)Z', u'Lcom/ansca/corona/Controller;->setIdleTimer(Z)V', u'Lcom/ansca/corona/ViewManager$26;-><init>(Lcom/ansca/corona\n---\nADDED set([u'Lcom/prime31/ChartboostPlugin$9;-><init>(Lcom/prime31/ChartboostPlugin;)V', u'Lcom/heyzap/sdk/ads/FullscreenVideoView;->hideControls()V', u'Lcom/chartboost/sdk/impl/p$b;-><clinit>()V', u'Lcom/chartboost/sdk/Libraries/e$k;-><init>([Lcom/chartboost/sdk/Libraries/e$a;)V', u'Lcom/heyzap/sdk/ads/InterstitialWebView$5;-><init>(Lcom/heyzap/sdk/ads/InterstitialWebView;)V', u'Lcom/heyzap/sdk/ads/Video;->onComplete(Ljava/lang/Boolean; I I Ljava/lang/Boolean;)Ljava/lang/Boolean;', u'Lorg/json/heyzap/JSONObject;->remove(Ljava/lang/String;)Ljava/lang/Object;', u'Lcom/heyzap/internal/ClickableToast;->onAttachedToWindow()V', u'Lcom/chartboost/sdk/Libraries/CBOrientation;->rotate270()Lcom/chartboost/sdk/Libraries/CBOrientation;', u'Lcom/chartboost/sdk/CBImpressionActivity;->onDestroy()V', u'Lcom/chartboost/sdk/impl/b;->a(Lorg/json/JSONObject;)V', u'Lorg/eclipse/paho/client/mqttv3/internal/ClientState;->send(Lorg/eclipse/paho/client/mqttv3/internal/wire/MqttWireMessage; Lorg/eclipse/paho/client/"
p48
sg5
S'CHANGED (JI 0.0%)'
p49
sg7
F0
sa(dp50
g3
S'EQUAL (JI 100%)'
p51
sg5
S'EQUAL (JI 100%)'
p52
sg7
I100
sa(dp53
g3
S"\nDELETED set([u'Lcom/ansca/corona/ViewManager;->removeAllMapViewMarkers(I)V', u'Lcom/naef/jnlua/script/LuaScriptEngine;->loadChunk(Ljava/lang/String; Ljavax/script/ScriptContext;)V', u'Lcom/tapfortap/TapForTap$Gender;->valueOf(Ljava/lang/String;)Lcom/tapfortap/TapForTap$Gender;', u'Lcom/ansca/corona/CoronaLuaErrorHandler$2;->run()V', u'Lcom/ansca/corona/opengl/GLSurfaceView$GLThread;->access$1102(Lcom/ansca/corona/opengl/GLSurfaceView$GLThread; Z)Z', u'Lcom/ansca/corona/Controller;->saveBitmap(Landroid/graphics/Bitmap; Landroid/net/Uri;)Z', u'Lcom/ansca/corona/Controller;->setIdleTimer(Z)V', u'Lcom/ansca/corona/NativeToJavaBridge;->getDisplayMetrics()Landroid/util/DisplayMetrics;', u'Lcom/ansca/corona/JavaToNativeShim;->webViewClosed(I)V', u'Lcom/ansca/corona/CoronaData$List$ParcelableCreator;->newArray(I)[Ljava/lang/Object;', u'Lcom/naef/jnlua/LuaState;->checkBoolean(I)Z', u'Lcom/ansca/corona/CameraView;-><init>(Landroid/content/Context;)V', u'Ljava/lang/Character;->charValue()C', u'Lcom/ansca\n---\nADDED set([u'Lcom/chartboost/sdk/impl/ar;->a(Ljava/io/OutputStream;)I', u'Lorg/xmlpull/v1/XmlPullParserFactory;->setNamespaceAware(Z)V', u'Landroid/widget/AbsoluteLayout;->onMeasure(I I)V', u'Lcom/chartboost/sdk/Libraries/e$k;-><init>([Lcom/chartboost/sdk/Libraries/e$a;)V', u'Lorg/json/heyzap/JSONObject;->remove(Ljava/lang/String;)Ljava/lang/Object;', u'Lcom/heyzap/internal/ClickableToast;->onAttachedToWindow()V', u'Landroid/util/SparseArray;->remove(I)V', u'Lcom/heyzap/internal/Drawables$4$1;->run()V', u'Lcom/chartboost/sdk/impl/av;->a()B', u'Landroid/widget/ListView;-><init>(Landroid/content/Context; Landroid/util/AttributeSet; I)V', u'Lcom/heyzap/internal/ClickableToast;->getSlideDownAnimation(Landroid/content/Context;)I', u'Lcom/unity3d/player/m;-><init>(Landroid/content/Context; Lcom/unity3d/player/UnityPlayer; Ljava/lang/String; I Z Z Z Ljava/lang/String;)V', u'Lcom/chartboost/sdk/impl/p$b;-><clinit>()V', u'Lcom/chartboost/sdk/impl/an;->c(Ljava/lang/String;)I', u'Landroid/widget/FrameL"
p54
sg5
S'CHANGED (JI 7.15%)'
p55
sg7
F7.1500000000000004
sa(dp56
g3
S"\nDELETED set([u'Landroid/app/ActivityManager;->getMemoryInfo(Landroid/app/ActivityManager$MemoryInfo;)V', u'Landroid/webkit/WebSettings;->setDomStorageEnabled(Z)V', u'Landroid/util/Log;->e(Ljava/lang/String; Ljava/lang/String; Ljava/lang/Throwable;)I', u'Landroid/location/Location;->getSpeed()F', u'Ljava/lang/Character;->charValue()C', u'Landroid/webkit/WebSettings;->setGeolocationEnabled(Z)V', u'Ljava/lang/reflect/InvocationTargetException;->getTargetException()Ljava/lang/Throwable;', u'Lorg/apache/http/client/methods/HttpPost;->addHeader(Ljava/lang/String; Ljava/lang/String;)V', u'Ljava/io/RandomAccessFile;->seek(J)V', u'Ljava/security/MessageDigest;->getDigestLength()I', u'Ljava/io/File;->toURI()Ljava/net/URI;', u'Landroid/os/Bundle;->putParcelable(Ljava/lang/String; Landroid/os/Parcelable;)V', u'Ljava/io/InputStream;->markSupported()Z', u'Ljava/util/Vector;->removeAllElements()V', u'Landroid/content/Context;->unbindService(Landroid/content/ServiceConnection;)V', u'Landroid/content/Context;-\n---\nADDED set([u'Landroid/widget/AbsoluteLayout;->onMeasure(I I)V', u'Landroid/hardware/Camera;->setPreviewCallbackWithBuffer(Landroid/hardware/Camera$PreviewCallback;)V', u'Landroid/os/Looper;->myLooper()Landroid/os/Looper;', u'Lorg/apache/http/client/HttpResponseException;->getStatusCode()I', u'Landroid/widget/FrameLayout;->onTouchEvent(Landroid/view/MotionEvent;)Z', u'Landroid/view/View;->post(Ljava/lang/Runnable;)Z', u'Ljava/io/File;-><init>(Ljava/lang/String; Ljava/lang/String;)V', u'Landroid/graphics/Matrix;->mapPoints([F)V', u'Ljava/util/Map;->putAll(Ljava/util/Map;)V', u'Landroid/widget/FrameLayout;->requestLayout()V', u'Landroid/widget/TextView;->setTextSize(I F)V', u'Landroid/graphics/Canvas;->rotate(F)V', u'Ljava/util/Collections;->synchronizedMap(Ljava/util/Map;)Ljava/util/Map;', u'Landroid/graphics/Canvas;->drawPath(Landroid/graphics/Path; Landroid/graphics/Paint;)V', u'Landroid/app/Activity;->addContentView(Landroid/view/View; Landroid/view/ViewGroup$LayoutParams;)V', u'Landroid/gr"
p57
sg5
S'CHANGED (JI 40.78%)'
p58
sg7
F40.780000000000001
sa(dp59
g3
S'\nDELETED set([u\' a\', u\'\\\'progress\\\' value of params table was invalid, if provided, must be either "upload" or "download", but was: "%s"\', u\'LAST_VERSION_CHECKED\', u\'isGoogleExpansionFileRequired\', u\'Could not parse response.\', u\'auth.expireSession failed\', u\'results\', u\'RESTORE_TRANSACTIONS\', u\'month\', u\'getCameraInfo\', u\'Writing content charset debug\', u\'android.permission.INTERNET\', u\'REQUEST_ID\', u\'go\', u\'PreferenceObfuscator\', u\'{value : true}\', u\'EGL_BAD_CONTEXT\', u\'network error\', u\'ad/interstitial\', u\'AndroidAuthKillSwitchException\', u\'%1.2f\', u\'play.google.com\', u\'SoundEnded\', u\'com.android.vending.licensing.ILicenseResultListener\', u\'Not a Zip archive\', u\'charset=\', u\'init\', u\'network plugin onLoaded - JNLUA version is: \', u\'requestId\', u\'bypass-dismiss-listener\', u"Unable to load file \'", u\'android.hardware.location.network\', u\'Orientation\', u\' Picture \', u\'resources\', u\'Failed to fetch image at \', u\'eglSwapBuffers\', u\'): \', u\'Lua runtime error occurred.\', u\'GT\', u\'GR\', u\'onEndSessio\n---\nADDED set([u\'Android Simulator\', u\'Failure to initialize!\', u\'File does not exist.\', u\', body: \', u\'streaming_url\', u"Expected a closing name instead of \'", u\'<Init>\', u\'umts\', u\'checkForActivity\', u\'org.bson.ObjectId\', u\'video_duration_seconds\', u\'bad base-64\', u\'query\', u\'waitForResponse\', u\'creative\', u\'javax.net.ssl.keyStoreType\', u\'javascript: try{adViewHidden();} catch(e) {}\', u\'DOTALL\', u\'Something went wrong. Please try again later.\', u\'deliveryComplete\', u\'restoreToken\', u\' : ClientComms\', u\'heyzap-start\', u\'No internet connection\', u\'didFinishInterstitial\', u\'MinKey\', u\'Not running Unity from an Activity; ignored...\', u\'nofilename\', u\'ad_strategy\', u\'JSONObject[\', u\'onActivityResult\', u\'notifyComplete\', u\' ,usercontext=\', u\'ANGLE_90\', u\'sc-\', u\'(COMPLETE) [\', u\'The context must be set through the Chartboost method onCreate() before calling recordPaymentTransaction().\', u\'http_client_url\', u\'object must contain the following key-value schema: {\\n\', u\'719\', u\'saveToken\', u\'716\', u\'No'
p60
sg5
S'CHANGED (JI 5.63%)'
p61
sg7
F5.6299999999999999
sa(dp62
g3
S"\nDELETED set(['Lcom/naef/jnlua/script/LuaScriptEngine$ReaderInputStream;->encoder Ljava/nio/charset/CharsetEncoder; [access_flags=private]\\n', 'Lcom/ansca/corona/Controller$6;->val$theDialog Landroid/app/AlertDialog; [access_flags=synthetic final]\\n', 'Lnetwork/NetworkRequest$NetworkRequestParameters;->callback Lnetwork/NetworkRequest$LuaCallback; [access_flags=public]\\n', 'Lcom/ansca/corona/ViewManager$31;->val$id I [access_flags=synthetic final]\\n', 'Lcom/ansca/corona/events/NetworkRequestEvent;->myIsError Z [access_flags=private]\\n', 'Lcom/loopj/android/http/RequestParams;->urlParams Ljava/util/concurrent/ConcurrentHashMap; [access_flags=private]\\n', 'Lcom/tapfortap/AppWall;->imageCache Lcom/tapfortap/ImageCache; [access_flags=private]\\n', 'Lcom/ansca/corona/CoronaWebView;->fBackKeySupported Z [access_flags=private]\\n', 'Lcom/ansca/corona/events/MediaEvent$Event;->LoadSound Lcom/ansca/corona/events/MediaEvent$Event; [access_flags=public static enum final]\\n', 'Lcom/ansca/corona/ViewManager$1\n---\nADDED set(['Lcom/chartboost/sdk/a;->e Lcom/chartboost/sdk/impl/n; [access_flags=private]\\n', 'Lcom/chartboost/sdk/impl/ai$a;->l Ljava/lang/String; [access_flags=public final]\\n', 'Lcom/heyzap/sdk/ads/InterstitialWebView$1;->val$width I [access_flags=synthetic final]\\n', 'Lcom/chartboost/sdk/Chartboost;->z Z [access_flags=private]\\n', 'Lcom/unity3d/player/j;->b Landroid/app/Activity; [access_flags=private final]\\n', 'Lorg/eclipse/paho/client/mqttv3/internal/wire/MqttWireMessage;->type B [access_flags=private]\\n', 'Lorg/eclipse/paho/client/mqttv3/internal/CommsReceiver;->in Lorg/eclipse/paho/client/mqttv3/internal/wire/MqttInputStream; [access_flags=private]\\n', 'Lorg/eclipse/paho/client/mqttv3/internal/wire/CountingInputStream;->in Ljava/io/InputStream; [access_flags=private]\\n', 'Lcom/chartboost/sdk/Chartboost;->e Lcom/chartboost/sdk/b; [access_flags=private]\\n', 'Lcom/prime31/ChartboostPlugin$10;->this$0 Lcom/prime31/ChartboostPlugin; [access_flags=synthetic final]\\n', 'Lorg/eclipse/paho/cl"
p63
sg5
S'CHANGED (JI 0.0%)'
p64
sg7
F0
sa.