(lp1
(dp2
S'detailed'
p3
S'EQUAL'
p4
sS'not_detailed'
p5
S'EQUAL'
p6
sS'score'
p7
I100
sa(dp8
g3
S'EQUAL'
p9
sg5
S'EQUAL'
p10
sg7
I100
sa(dp11
g3
S'EQUAL'
p12
sg5
S'EQUAL'
p13
sg7
I100
sa(dp14
g3
S'EQUAL'
p15
sg5
S'EQUAL'
p16
sg7
I100
sa(dp17
g3
S'EQUAL'
p18
sg5
S'EQUAL'
p19
sg7
I100
sa(dp20
g3
S'EQUAL'
p21
sg5
S'EQUAL'
p22
sg7
I100
sa(dp23
g3
S'EQUAL (JI 100%)'
p24
sg5
S'EQUAL (JI 100%)'
p25
sg7
I100
sa(dp26
g3
S'EQUAL'
p27
sg5
S'EQUAL'
p28
sg7
I100
sa(dp29
g3
S'EQUAL'
p30
sg5
S'EQUAL'
p31
sg7
I100
sa(dp32
g3
S'EQUAL (JI 100%)'
p33
sg5
S'EQUAL (JI 100%)'
p34
sg7
I100
sa(dp35
g3
S"\nDELETED set(['META-INF/FRUITSMO.SF', 'META-INF/FRUITSMO.RSA'])\n---\nADDED set(['assets/refresh.png', 'assets/out.png', 'assets/next.png', 'META-INF/RECOMPLI.RSA', 'assets/preview.png', 'assets/exit.png', 'assets/preview_off.png', 'assets/def_0_32000048.png', 'assets/banner.png', 'META-INF/RECOMPLI.SF', 'assets/next_off.png', 'assets/def_0.png', 'assets/loading.png', 'assets/close.png'])"
p36
sg5
S'CHANGED (JI 91.3%)'
p37
sg7
F91.299999999999997
sa(dp38
g3
S'EQUAL (JI 100%)'
p39
sg5
S'EQUAL (JI 100%)'
p40
sg7
I100
sa(dp41
g3
S'EQUAL (JI 100%)'
p42
sg5
S'EQUAL (JI 100%)'
p43
sg7
I100
sa(dp44
g3
S"\nDELETED set([])\n---\nADDED set([u'Lcn/domob/android/ads/DomobActivity$1;', u'Landroid/util/AttributeSet;', u'Lcn/domob/android/ads/giftool/GifView$a;', u'Lcn/domob/android/ads/f;', u'Ljava/io/ByteArrayInputStream;', u'Ljava/lang/Process;', u'Lcn/domob/android/ads/DomobActivity;', u'Ljava/util/Hashtable;', u'Landroid/webkit/WebSettings;', u'Lcn/domob/android/ads/DomobAdView;', u'Ljava/lang/UnsupportedOperationException;', u'Lcn/domob/android/ads/o;', u'Lcn/domob/android/ads/DomobReport$ReportInfo;', u'Lcn/domob/android/ads/DomobInApp$9;', u'Lcn/domob/android/ads/DomobReport;', u'Lcn/domob/android/download/AppExchangeDownloaderListener;', u'Lcn/domob/android/ads/DomobAdEngine$RecvHandler;', u'Lcn/domob/android/ads/q;', u'Landroid/view/animation/Animation;', u'Lcn/domob/android/ads/DomobInApp$2;', u'Landroid/graphics/PointF;', u'Lcn/domob/android/ads/DomobAdDataItem;', u'Lcn/domob/android/ads/giftool/c;', u'Ljava/io/BufferedWriter;', u'Landroid/webkit/WebViewClient;', u'Lcn/domob/android/ads/e;', u'Lcn/domob/androi"
p45
sg5
S'CHANGED (JI 74.87%)'
p46
sg7
F74.870000000000005
sa(dp47
g3
S"\nDELETED set([])\n---\nADDED set([u'Lcn/domob/android/ads/DomobAdManager;->getPublisherId(Landroid/content/Context;)Ljava/lang/String;', u'Lcn/domob/android/ads/DomobAdEngine;->b(Lorg/json/JSONObject;)V', u'Lcn/domob/android/ads/giftool/b;->a()V', u'Lcn/domob/android/download/FileDownloadThread;->isFinished()Z', u'Lcn/domob/android/ads/l;->onWindowFocusChanged(Z)V', u'Lcn/domob/android/download/a;->handleMessage(Landroid/os/Message;)V', u'Lcn/domob/android/ads/DomobAdView;->cleanup()V', u'Lcn/domob/android/ads/d;->a()Z', u'Lcn/domob/android/ads/j;->b()V', u'Lcn/domob/android/ads/DomobAdBuilder;->i()Z', u'Lcn/domob/android/download/AppExchangeDownloader;->d(Lcn/domob/android/download/AppExchangeDownloader;)Landroid/app/PendingIntent;', u'Lcn/domob/android/ads/DomobAdView$e;-><init>(Lcn/domob/android/ads/DomobAdView;)V', u'Lcn/domob/android/ads/q;->a()Z', u'Lcn/domob/android/ads/DomobInApp$1;->onPageFinished(Landroid/webkit/WebView; Ljava/lang/String;)V', u'Lcn/domob/android/ads/DBHelper;->b(Landroid/net/Uri; Ljava/"
p48
sg5
S'CHANGED (JI 68.56%)'
p49
sg7
F68.560000000000002
sa(dp50
g3
S'EQUAL (JI 100%)'
p51
sg5
S'EQUAL (JI 100%)'
p52
sg7
I100
sa(dp53
g3
S"\nDELETED set([])\n---\nADDED set([u'Ljava/lang/Character;->isLetter(C)Z', u'Lcn/domob/android/ads/DomobAdEngine;->b(Lorg/json/JSONObject;)V', u'Lorg/json/JSONArray;->getJSONObject(I)Lorg/json/JSONObject;', u'Lcn/domob/android/ads/l;->onWindowFocusChanged(Z)V', u'Lcn/domob/android/download/a;->handleMessage(Landroid/os/Message;)V', u'Landroid/webkit/WebView;-><init>(Landroid/content/Context;)V', u'Lcn/domob/android/ads/DomobAdView;->getContext()Landroid/content/Context;', u'Lcn/domob/android/ads/d;->a()Z', u'Lcn/domob/android/ads/j;->b()V', u'Lcn/domob/android/ads/l;->stopFlipping()V', u'Lcn/domob/android/ads/DomobAdView$e;-><init>(Lcn/domob/android/ads/DomobAdView;)V', u'Lcn/domob/android/ads/DomobInApp$1;->onPageFinished(Landroid/webkit/WebView; Ljava/lang/String;)V', u'Lcn/domob/android/ads/DBHelper;->b(Landroid/net/Uri; Ljava/lang/String;)Landroid/database/Cursor;', u'Lcn/domob/android/ads/DomobAdView;->getListener(Lcn/domob/android/ads/DomobAdView;)Lcn/domob/android/ads/DomobAdListener;', u'Lcn/domob/android/a"
p54
sg5
S'CHANGED (JI 65.49%)'
p55
sg7
F65.489999999999995
sa(dp56
g3
S"\nDELETED set([])\n---\nADDED set([u'Landroid/widget/RelativeLayout;->onKeyUp(I Landroid/view/KeyEvent;)Z', u'Ljava/lang/Character;->isLetter(C)Z', u'Landroid/content/pm/PackageManager;->resolveActivity(Landroid/content/Intent; I)Landroid/content/pm/ResolveInfo;', u'Landroid/app/Dialog;->getWindow()Landroid/view/Window;', u'Landroid/app/AlertDialog$Builder;->setMessage(Ljava/lang/CharSequence;)Landroid/app/AlertDialog$Builder;', u'Landroid/util/Log;->isLoggable(Ljava/lang/String; I)Z', u'Landroid/view/Window;->getAttributes()Landroid/view/WindowManager$LayoutParams;', u'Landroid/view/View;->getResources()Landroid/content/res/Resources;', u'Landroid/widget/TextView;-><init>(Landroid/content/Context;)V', u'Landroid/widget/ImageView;->setId(I)V', u'Ljava/lang/Character;->isLowerCase(C)Z', u'Landroid/view/View;->bringToFront()V', u'Ljava/io/File;->getAbsoluteFile()Ljava/io/File;', u'Landroid/widget/RelativeLayout;->setPressed(Z)V', u'Landroid/os/SystemClock;->sleep(J)V', u'Landroid/content/res/Resources;->openRawResour"
p57
sg5
S'CHANGED (JI 91.42%)'
p58
sg7
F91.420000000000002
sa(dp59
g3
S"\nDELETED set([])\n---\nADDED set([u'\\u8fde\\u63a5\\u4e0b\\u8f7d\\u5730\\u5740\\u9519\\u8bef', u' from cache', u'update config', u' from now.', u'build view with markup.', u'WindowFocus:', u'\\u5f53\\u524d\\u5e94\\u7528\\u5df2\\u5728\\u4e0b\\u8f7d', u'socket connect  is  throws UnknownHostException ', u'failed to init DomobAdManager!', u'rom', u'load ', u'conf db has already been initialized!', u'ts', u'interactions', u'smsto:', u'error happened in doAction!', u'text', u'_res_ver', u'connection return error:', u'call success recvie dataAds', u'downloading', u'set ad url:', u'update cid:', u'inapp_fs', u'GIF', u'ed:', u'AD is disabled on web server.', u'failed to construct view!', u' is  exsist', u'refresh.png', u'application/vnd.android.package-archive', u'-1', u'clear engine resources.', u'gif,fsi,ltx', u'Trying to get locations from GPS.', u'tel', u'stop download  cancel notify ', u'onKeyUp:', u'{%d, %d, %d, %f}', u'l2r', u'video', u'failed to get interactions!', u'download', u'port', u'Refreshes must be at least ', u'heightMea"
p60
sg5
S'CHANGED (JI 49.38%)'
p61
sg7
F49.380000000000003
sa(dp62
g3
S"\nDELETED set([])\n---\nADDED set(['Lcn/domob/android/ads/DomobAdView;->mNoAd Z [access_flags=protected]\\n', 'Lcn/domob/android/ads/giftool/b;->l I [access_flags=private]\\n', 'Lcn/domob/android/ads/giftool/b;->c Ljava/io/InputStream; [access_flags=private]\\n', 'Lcn/domob/android/download/DownloadTask;->f Lcn/domob/android/download/AppExchangeDownloader$a; [access_flags=private]\\n', 'Lcn/domob/android/ads/DomobActivity$2;->a Lcn/domob/android/ads/DomobActivity; [access_flags=private synthetic]\\n', 'Lcn/domob/android/ads/DomobAdEngine$c;->c Ljava/lang/String; [access_flags=public]\\n', 'Lcn/domob/android/ads/DomobAdEngine;->o Ljava/util/Vector; [access_flags=private]\\n', 'Lcn/domob/android/ads/d;->l Ljava/lang/String; [access_flags=private]\\n', 'Lcn/domob/android/ads/giftool/b;->s I [access_flags=private]\\n', 'Lcn/domob/android/ads/DomobInApp;->g Landroid/widget/RelativeLayout; [access_flags=private]\\n', 'Lcn/domob/android/ads/DomobAdView$d;->e Lcn/domob/android/ads/DomobAdView; [access_flags=private synthetic]\\n', 'L"
p63
sg5
S'CHANGED (JI 68.73%)'
p64
sg7
F68.730000000000004
sa.