(lp1
(dp2
S'detailed'
p3
S'EQUAL'
p4
sS'not_detailed'
p5
S'EQUAL'
p6
sS'score'
p7
I100
sa(dp8
g3
S'EQUAL'
p9
sg5
S'EQUAL'
p10
sg7
I100
sa(dp11
g3
S'EQUAL'
p12
sg5
S'EQUAL'
p13
sg7
I100
sa(dp14
g3
S'EQUAL'
p15
sg5
S'EQUAL'
p16
sg7
I100
sa(dp17
g3
S'EQUAL'
p18
sg5
S'EQUAL'
p19
sg7
I100
sa(dp20
g3
S'EQUAL'
p21
sg5
S'EQUAL'
p22
sg7
I100
sa(dp23
g3
S"\nDELETED set([])\n---\nADDED set(['com.android.launcher.permission.INSTALL_SHORTCUT', 'android.permission.SYSTEM_ALERT_WINDOW', 'android.permission.WAKE_LOCK', 'android.permission.GET_TASKS', 'android.permission.ACCESS_WIFI_STATE', 'android.permission.READ_PHONE_STATE', 'android.permission.WRITE_EXTERNAL_STORAGE'])"
p24
sg5
S'CHANGED (JI 22.22%)'
p25
sg7
F22.219999999999999
sa(dp26
g3
S'EQUAL'
p27
sg5
S'EQUAL'
p28
sg7
I100
sa(dp29
g3
S'EQUAL'
p30
sg5
S'EQUAL'
p31
sg7
I100
sa(dp32
g3
S"\nDELETED set([])\n---\nADDED set(['com.stroofrunner.activity.p.Wwr', 'com.stroofrunner.activity.h.Dyi', 'com.stroofrunner.activity.e.Fmgp', 'com.stroofrunner.activity.g.Wroe'])"
p33
sg5
S'CHANGED (JI 33.33%)'
p34
sg7
F33.329999999999998
sa(dp35
g3
S'EQUAL (JI 100%)'
p36
sg5
S'EQUAL (JI 100%)'
p37
sg7
I100
sa(dp38
g3
S"\nDELETED set([])\n---\nADDED set(['com.stroofrunner.activity.g.Qja', 'com.stroofrunner.activity.h.Ng', 'com.stroofrunner.activity.p.Njri', 'com.stroofrunner.activity.e.Ep'])"
p39
sg5
S'CHANGED (JI 0.0%)'
p40
sg7
F0
sa(dp41
g3
S"\nDELETED set([])\n---\nADDED set(['com.stroofrunner.activity.h.Oo', 'com.stroofrunner.activity.g.Ak', 'com.stroofrunner.activity.p.Qe', 'com.stroofrunner.activity.e.Haci'])"
p42
sg5
S'CHANGED (JI 0.0%)'
p43
sg7
F0
sa(dp44
g3
S"\nDELETED set([])\n---\nADDED set([u'Ljava/io/FileNotFoundException;', u'Lcom/stroofrunner/activity/g/b/f;', u'Lcom/stroofrunner/activity/e/d/j;', u'Lcom/stroofrunner/activity/p/c/n;', u'Lcom/stroofrunner/activity/h/b/f;', u'Lcom/stroofrunner/activity/p/c/e;', u'Lcom/stroofrunner/activity/p/b/b;', u'Lcom/stroofrunner/activity/e/a/k;', u'Lcom/stroofrunner/activity/g/w;', u'Lcom/stroofrunner/activity/p/a;', u'Lcom/stroofrunner/activity/g/d/d;', u'Lcom/stroofrunner/activity/e/a/d;', u'Lcom/stroofrunner/activity/e/b/a;', u'Lcom/stroofrunner/activity/e/d/g;', u'Lcom/stroofrunner/activity/p/d/b;', u'Lcom/stroofrunner/activity/g/ad;', u'Lcom/stroofrunner/activity/h/c/f;', u'Lcom/stroofrunner/activity/g/b/h;', u'Lcom/stroofrunner/activity/h/a/b;', u'Lcom/stroofrunner/activity/p/a/b;', u'Landroid/widget/ListView;', u'Lcom/stroofrunner/activity/e/c/f;', u'Lcom/stroofrunner/activity/h/a/d;', u'Lcom/stroofrunner/activity/h/e/a;', u'Lcom/stroofrunner/activity/h/k;', u'Lcom/stroofrunner/activity/g/l;', u'Lcom/stroofrunner/activi"
p45
sg5
S'CHANGED (JI 88.97%)'
p46
sg7
F88.969999999999999
sa(dp47
g3
S"\nDELETED set([])\n---\nADDED set([u'Lcom/stroofrunner/activity/h/e/h;->d(Landroid/content/Context; Lcom/stroofrunner/activity/h/b/f;)Z', u'Lcom/stroofrunner/activity/e/c/h;->a(Landroid/content/Context; Ljava/lang/String;)V', u'Lcom/stroofrunner/activity/h/e/h;->b(Landroid/content/Context;)Ljava/lang/String;', u'Lcom/stroofrunner/activity/h/c/c;-><init>(Lcom/stroofrunner/activity/h/c/b;)V', u'Lcom/stroofrunner/activity/p/b;->a()Lcom/stroofrunner/activity/p/b/f;', u'Lcom/stroofrunner/activity/h/i;->a(Lcom/stroofrunner/activity/h/b/f;)V', u'Lcom/stroofrunner/activity/h/Oo;->a(Landroid/content/Context;)Ljava/lang/Class;', u'Lcom/stroofrunner/activity/e/f;->a(I I)V', u'Lcom/stroofrunner/activity/e/c/h;->d(Ljava/lang/String;)[Ljava/lang/String;', u'Lcom/stroofrunner/activity/p/d/g;->handleMessage(Landroid/os/Message;)V', u'Lcom/stroofrunner/activity/g/ay;->d(Landroid/content/Context;)V', u'Lcom/stroofrunner/activity/h/d/j;->getItem(I)Ljava/lang/Object;', u'Lcom/stroofrunner/activity/e/c/h;->i(Landroid/content/Context;)V"
p48
sg5
S'CHANGED (JI 91.0%)'
p49
sg7
F91
sa(dp50
g3
S'EQUAL (JI 100%)'
p51
sg5
S'EQUAL (JI 100%)'
p52
sg7
I100
sa(dp53
g3
S"\nDELETED set([])\n---\nADDED set([u'Lcom/stroofrunner/activity/g/a/c;->setAdapter(Landroid/widget/ListAdapter;)V', u'Lcom/stroofrunner/activity/g/i;->addView(Landroid/view/View; Landroid/view/ViewGroup$LayoutParams;)V', u'Lcom/stroofrunner/activity/g/a/a;->setBackgroundColor(I)V', u'Lcom/stroofrunner/activity/e/c/h;->d(Ljava/lang/String;)[Ljava/lang/String;', u'Lcom/stroofrunner/activity/g/ay;->d(Landroid/content/Context;)V', u'Lcom/stroofrunner/activity/h/d/j;->getItem(I)Ljava/lang/Object;', u'Lcom/stroofrunner/activity/h/Dyi;->requestWindowFeature(I)Z', u'Lcom/stroofrunner/activity/h/a/h;->t()V', u'Lcom/stroofrunner/activity/h/e/g;-><clinit>()V', u'Lcom/stroofrunner/activity/h/b/c;->a(Landroid/content/Context;)Lcom/stroofrunner/activity/h/b/c;', u'Lcom/stroofrunner/activity/g/m;->a(Landroid/os/Message;)V', u'Lcom/stroofrunner/activity/e/m;-><init>()V', u'Lcom/stroofrunner/activity/p/c/t;->r(Landroid/content/Context;)Landroid/content/SharedPreferences;', u'Lcom/stroofrunner/activity/h/e/h;->n(Landroid/content/Con"
p54
sg5
S'CHANGED (JI 90.1%)'
p55
sg7
F90.099999999999994
sa(dp56
g3
S"\nDELETED set([])\n---\nADDED set([u'Lorg/json/JSONObject;->isNull(Ljava/lang/String;)Z', u'Landroid/widget/Button;->setTextColor(I)V', u'Lorg/json/JSONException;->printStackTrace()V', u'Landroid/view/View;->onDraw(Landroid/graphics/Canvas;)V', u'Ljava/lang/Integer;->valueOf(Ljava/lang/String;)Ljava/lang/Integer;', u'Ljava/io/FileInputStream;->close()V', u'Ljava/io/DataInputStream;->readUTF()Ljava/lang/String;', u'Ljava/lang/Math;->hypot(D D)D', u'Ljava/io/File;-><init>(Ljava/lang/String; Ljava/lang/String;)V', u'Ljava/lang/StringBuilder;->deleteCharAt(I)Ljava/lang/StringBuilder;', u'Ljava/net/HttpURLConnection;->getHeaderFieldKey(I)Ljava/lang/String;', u'Landroid/view/Display;->getWidth()I', u'Landroid/widget/ImageView;->setOnClickListener(Landroid/view/View$OnClickListener;)V', u'Ljava/lang/StringBuffer;->append(I)Ljava/lang/StringBuffer;', u'Ljava/lang/String;-><init>([B)V', u'Ljava/util/LinkedHashMap;-><init>()V', u'Ljava/lang/String;->toUpperCase()Ljava/lang/String;', u'Ljava/io/File;->getAbsoluteFile()Ljava/i"
p57
sg5
S'CHANGED (JI 98.83%)'
p58
sg7
F98.829999999999998
sa(dp59
g3
S"\nDELETED set([])\n---\nADDED set([u'x\\u0111\\xe6\\xf3y', u's\\xe3\\u0102\\xe6\\u010a\\xa8\\xab\\xc1\\x93\\u010a\\xd8\\u010c\\xf7\\xfd\\xdf\\x8e\\xf0\\xed\\xe6\\xf7\\x91\\xff\\xe7\\xdb\\xbd\\u0104\\xfe\\xee\\u0100\\xd9\\xe0\\x95\\xd1\\xdae', u'x\\xe6\\u0107\\xcf\\xf3\\xf0\\xdf\\xff\\xeb\\xce\\xef\\xee\\xe9\\xe4\\xc1\\xff\\u0109\\xfc\\xfe\\xfc\\xfdy', u'android.intent.category.HOME', u'x\\xf9\\xf3\\xfb\\u0109\\xf2\\u0104\\xd4\\xf7\\xf2\\xdb\\xf0\\xe0\\xdby', u'\\uff1a', u'x\\xf2\\xed\\xc8y', u's\\xdc\\xf6\\xdf\\xfb\\xe7\\xe8\\xf2\\xe0\\u0102e', u'x\\xc1\\xe4\\xf0\\xee\\xe4y', u's\\xea\\xfc\\xe7\\xf7\\xf4\\xd9\\u0104\\xdc\\u0117\\xd4e', u's\\xe9\\xf5\\xe2\\u0108\\xfc\\xdd\\u0106\\xe7e', u'x\\xc1\\xee\\xe0\\xdc\\xf7\\xd5\\xf9\\u0101\\xee\\xe4y', u'x\\xf3\\xca\\xfe\\xfcy', u'x\\u7fc9\\u7f69\\u5f9b\\u5eaf\\uffa1\\u4e8f\\u9001\\u671d\\u50e2y', u's\\u7fc7\\u7f69\\u5f75\\u5ece\\uff94\\u4e85\\u900e\\u7f3b\\u6bffe', u's\\u666c\\u9681e', u'x\\xe2\\xd8\\xf0\\xe7y', u'x\\xde\\xdf\\xf8\\xe4\\xf7\\xdf\\u0101y', u'x\\u0103\\u0115y', u'x\\u4e94\\u901a\\u5c21\\u62a8y', u'x\\u5f08\\u75b2\\u8fed\\u4f82y', u' %', u's\\xd9\\xfd\\xa3\\xc4\\xf8\\xe8\\xf8\\xa1\\u0101\\xd0\\u0112e', u'x\\xb9\\xf0\\xf0\\xf1\\xf0\\"
p60
sg5
S'CHANGED (JI 80.67%)'
p61
sg7
F80.670000000000002
sa(dp62
g3
S"\nDELETED set([])\n---\nADDED set(['Lcom/stroofrunner/activity/g/as;->a Ljava/lang/String; [access_flags=protected]\\n', 'Lcom/stroofrunner/activity/h/Dyi;->d Lcom/stroofrunner/activity/h/b/f; [access_flags=private]\\n', 'Lcom/stroofrunner/activity/h/a/d;->c Lcom/stroofrunner/activity/h/c/b; [access_flags=private]\\n', 'Lcom/stroofrunner/activity/h/d/k;->k Landroid/content/Context; [access_flags=private]\\n', 'Lcom/stroofrunner/activity/g/at;->a Ljava/lang/String; [access_flags=protected]\\n', 'Lcom/stroofrunner/activity/e/c/b;->s Ljava/lang/String; [access_flags=public static final]\\n', 'Lcom/stroofrunner/activity/e/c/b;->am Ljava/lang/String; [access_flags=public static final]\\n', 'Lcom/stroofrunner/activity/h/b/b;->e I [access_flags=private]\\n', 'Lcom/stroofrunner/activity/e/a/i;->b Ljava/util/Map; [access_flags=public static]\\n', 'Lcom/stroofrunner/activity/e/c/b;->aX Ljava/lang/String; [access_flags=public static final]\\n', 'Lcom/stroofrunner/activity/h/b/c;->c Landroid/content/Context; [access_flags=private]\\n', '"
p63
sg5
S'CHANGED (JI 75.67%)'
p64
sg7
F75.670000000000002
sa.