(lp1
(dp2
S'detailed'
p3
S'EQUAL'
p4
sS'not_detailed'
p5
S'EQUAL'
p6
sS'score'
p7
I100
sa(dp8
g3
S'EQUAL'
p9
sg5
S'EQUAL'
p10
sg7
I100
sa(dp11
g3
S'EQUAL'
p12
sg5
S'EQUAL'
p13
sg7
I100
sa(dp14
g3
S'EQUAL'
p15
sg5
S'EQUAL'
p16
sg7
I100
sa(dp17
g3
S'DIFFERENT: 18!=None'
p18
sg5
S'CHANGED'
p19
sg7
I0
sa(dp20
g3
S'DIFFERENT: 18!=8'
p21
sg5
S'CHANGED'
p22
sg7
I0
sa(dp23
g3
S"\nDELETED set(['com.forex.app.permission.C2D_MESSAGE', 'android.permission.AUTHENTICATE_ACCOUNTS', 'com.android.vending.BILLING', 'android.permission.WRITE_CONTACTS', 'com.google.android.c2dm.permission.RECEIVE', 'android.permission.CAMERA', 'android.permission.READ_CONTACTS', 'android.permission.GET_ACCOUNTS', 'android.permission.WRITE_CALENDAR'])\n---\nADDED set(['android.permission.WRITE_APN_SETTINGS', 'com.forex.app.permission.JPUSH_MESSAGE', 'android.permission.READ_LOGS', 'android.permission.READ_EXTERNAL_STORAGE', 'android.permission.ACCESS_FINE_LOCATION', 'android.permission.RECEIVE_USER_PRESENT', 'android.permission.SYSTEM_ALERT_WINDOW', 'android.permission.ACCESS_WIFI_STATE', 'android.permission.ACCESS_COARES_LOCATION', 'android.permission.MOUNT_UNMOUNT_FILESYSTEMS'])"
p24
sg5
S'CHANGED (JI 26.92%)'
p25
sg7
F26.920000000000002
sa(dp26
g3
S'EQUAL'
p27
sg5
S'EQUAL'
p28
sg7
I100
sa(dp29
g3
S'DIFFERENT: Forex!=\xe5\x98\x89\xe7\x9b\x9b'
p30
sg5
S'CHANGED'
p31
sg7
I0
sa(dp32
g3
S"\nDELETED set(['com.forex.app.ForexActivity'])\n---\nADDED set(['com.activity.GuideViewActivity', 'com.weibo.SinaWeiboActivity', 'com.info.CopyrightActivity', 'com.activity.QuotesActivity', 'com.activity.CommentsActivity', 'com.info.SuggestionActivity', 'com.activity.AccountActivity', 'com.activity.CollegeActivity', 'com.push.SettingActivity', 'com.info.SetFontsActivity', 'com.push.ExampleApplication', 'com.activity.SplashActivity', 'com.activity.MessageActivity', 'com.activity.NewsActivity', 'com.push.PushMainActivity', 'com.activity.QuotesDetailsActivity', 'org.achartengine.GraphicalActivity', 'com.push.TestActivity', 'com.activity.MainTabsActivity', 'com.activity.InfoActivity', 'cn.jpush.android.ui.PushActivity', 'com.activity.ContentActivity', 'com.activity.WebActivity', 'com.activity.NewsDetailsActivity', 'com.push.PushSetActivity'])"
p33
sg5
S'CHANGED (JI 0.0%)'
p34
sg7
F0
sa(dp35
g3
S"\nDELETED set([u'assets/www/fonts/elefuns22029.TTF', u'assets/www/images/menu/share.png', u'assets/www/images/fd_logo.png', u'assets/www/js/expired.js', u'assets/www/js/settings.js', u'assets/www/images/settings/renew.png', u'assets/www/images/currency/eur.jpg', u'assets/www/js/main.js', u'res/drawable-xxhdpi/ic_launcher.png', u'assets/www/js/plugins/datePicker.js', u'assets/www/css/jquery/themes/default/images/icons-18-white.png', u'assets/www/js/serverCalls.js', u'assets/www/fonts/elefuns22037.ttf', u'assets/www/css/styles/expired.css', u'assets/www/js/register.js', u'assets/www/js/auth.js', u'assets/www/css/styles/myAccount.css', u'assets/www/images/header/back.png', u'assets/www/js/myAccount.js', u'res/drawable-hdpi/notification.png', u'assets/www/js/forgotPassword.js', u'assets/www/css/jquery/themes/default/images/icons-36-black.png', u'res/xml/config.xml', u'assets/www/images/social/linkedin.png', u'assets/www/js/jquery/jquery.js', u'assets/www/js/news.js', u'assets/www/js/data/data.js', u\n---\nADDED set(['res/drawable/ic_launcher.png', 'res/drawable/progressbar.xml', 'res/drawable/icon_info_update.png', 'res/layout/tabs.xml', 'res/anim/grow_from_topleft_to_bottomright.xml', 'res/drawable/guide0.png', 'res/drawable/icon_info_question.png', 'res/drawable/icon_hand.png', 'res/drawable/icon_back2x.png', 'res/layout-1280x720/splash.xml', 'res/layout/customer_notitfication_layout_one.xml', 'res/drawable/page_indicator.png', 'res/drawable/right_new.9.png', 'res/drawable/tabs_college_cur.png', 'res/drawable/cloudin.png', 'res/anim/shrink_from_top.xml', 'res/drawable/cv_table_line.png', 'res/anim/grow_from_bottomright_to_topleft.xml', 'res/drawable/frame_button_background.png', 'res/drawable/icon_info_like.png', 'res/layout/item01.xml', 'res/drawable/icon_p_favorite.png', 'res/drawable/icon_p_weixin.png', 'res/drawable/quickcontact_top_frame.9.png', 'res/layout/item03.xml', 'res/drawable/pop_item_back.9.png', 'res/drawable/bottom_nav_bg.png', 'res/drawable/action_forward.png', 'res/drawabl"
p36
sg5
S'CHANGED (JI 3.82%)'
p37
sg7
F3.8199999999999998
sa(dp38
g3
S"\nDELETED set(['com.forex.app.GCMIntentService'])\n---\nADDED set(['cn.jpush.android.service.DownloadService', 'cn.jpush.android.service.PushService'])"
p39
sg5
S'CHANGED (JI 0.0%)'
p40
sg7
F0
sa(dp41
g3
S"\nDELETED set(['com.google.android.gcm.GCMBroadcastReceiver'])\n---\nADDED set(['cn.jpush.android.service.PushReceiver', 'cn.jpush.android.service.AlarmReceiver', 'com.push.MyReceiver'])"
p42
sg5
S'CHANGED (JI 0.0%)'
p43
sg7
F0
sa(dp44
g3
S"\nDELETED set([u'Lorg/apache/cordova/CordovaActivity;', u'Landroid/support/v4/widget/SearchViewCompatHoneycomb$1;', u'Lorg/apache/cordova/api/CordovaPlugin;', u'Lorg/apache/cordova/api/CordovaInterface;', u'Lcom/squareup/okhttp/internal/AbstractOutputStream;', u'Landroid/support/v4/widget/SlidingPaneLayout$LayoutParams;', u'Landroid/support/v4/text/TextDirectionHeuristicsCompat$1;', u'Landroid/support/v4/content/ModernAsyncTask$InternalHandler;', u'Landroid/support/v4/view/MenuItemCompat$IcsMenuVersionImpl;', u'Lorg/apache/cordova/HttpHandler;', u'Lorg/apache/cordova/LinearLayoutSoftKeyboardDetect;', u'Landroid/support/v4/media/TransportController;', u'Lorg/apache/cordova/FileTransfer$ExposedGZIPInputStream;', u'Landroid/support/v4/view/ViewGroupCompatHC;', u'Landroid/support/v4/content/IntentCompat$IntentCompatImplHC;', u'Ljava/io/FilterOutputStream;', u'Ljava/security/SecureRandom;', u'Ljava/util/concurrent/FutureTask;', u'Lorg/apache/cordova/Notification$2$3;', u'Landroid/support/v4/view/Acce\n---\nADDED set([u'Lcom/weibo/sdk/android/api/WeiboAPI$FRIEND_TYPE;', u'Lorg/achartengine/renderer/XYMultipleSeriesRenderer;', u'Ljava/io/StringReader;', u'Lcom/tencent/mm/sdk/plugin/MMPluginProviderConstants;', u'Lcom/weibo/sdk/android/api/WeiboAPI$SORT3;', u'Lcom/tencent/mm/sdk/platformtools/package-info;', u'Ljava/lang/Process;', u'Lcom/activity/CommentsActivity$6;', u'Lcn/jpush/android/ui/h;', u'Lcom/activity/AccountActivity$5;', u'Lcom/forex/app/R$color;', u'Lcom/tencent/mm/sdk/storage/ISQLiteDatabase;', u'Lcom/activity/ContentActivity$1;', u'Lcom/weibo/sdk/android/Weibo;', u'Lcom/tencent/mm/sdk/openapi/WXImageObject;', u'Lcom/tencent/mm/sdk/platformtools/MAlarmHandler;', u'Landroid/view/SurfaceView;', u'Lcom/activity/InfoActivity$12;', u'Lcom/push/MyReceiver;', u'Lcom/update/BaseMethod;', u'Lcom/baidu/mobstat/o;', u'Lcn/jpush/android/a/c;', u'Lcom/activity/InfoActivity$6;', u'Ljunit/framework/Assert;', u'Lorg/achartengine/util/XYEntry;', u'Lcom/weibo/sdk/android/util/BitmapHelper;', u'Lcom/t"
p45
sg5
S'CHANGED (JI 17.21%)'
p46
sg7
F17.210000000000001
sa(dp47
g3
S"\nDELETED set([u'Lcom/squareup/okhttp/internal/Platform$JettyNpnProvider;->access$300(Lcom/squareup/okhttp/internal/Platform$JettyNpnProvider;)Z', u'Landroid/support/v4/view/MarginLayoutParamsCompatJellybeanMr1;->isMarginRelative(Landroid/view/ViewGroup$MarginLayoutParams;)Z', u'Landroid/support/v4/app/ActivityOptionsCompat$ActivityOptionsImplJB;->update(Landroid/support/v4/app/ActivityOptionsCompat;)V', u'Landroid/support/v4/app/ShareCompat$IntentReader;->getEmailCc()[Ljava/lang/String;', u'Landroid/support/v4/widget/ViewDragHelper;->processTouchEvent(Landroid/view/MotionEvent;)V', u'Landroid/support/v4/app/NavUtils$NavUtilsImplJB;->getParentActivityName(Landroid/content/Context; Landroid/content/pm/ActivityInfo;)Ljava/lang/String;', u'Lcom/squareup/okhttp/internal/spdy/SpdyStream;->closeLater(I)V', u'Landroid/support/v4/widget/SlidingPaneLayout$AccessibilityDelegate;->filter(Landroid/view/View;)Z', u'Lcom/squareup/okhttp/internal/http/HttpsURLConnectionImpl;->getInstanceFollowRedirects()Z', u'\n---\nADDED set([u'Lcn/jpush/android/service/PushService;->a(I I Ljava/lang/String; Ljava/lang/String; Ljava/lang/String;)V', u'Lcom/util/BitmapManager;->queueJob(Ljava/lang/String; Landroid/widget/ImageView; I I)V', u'Lorg/achartengine/GraphicalView;-><init>(Landroid/content/Context; Lorg/achartengine/chart/AbstractChart;)V', u'Lorg/achartengine/chart/PieSegment;->getValue()F', u'Lcn/jpush/android/a/aa;->a(Landroid/content/Context; Lorg/json/JSONObject;)Z', u'Lcn/jpush/android/b/g;-><clinit>()V', u'Lcom/tencent/mm/sdk/openapi/WXMediaMessage$IMediaObject;->unserialize(Landroid/os/Bundle;)V', u'Lcom/weibo/sdk/android/api/PlaceAPI;->nearbyPois(Ljava/lang/String; Ljava/lang/String; I Ljava/lang/String; Ljava/lang/String; I I Z Lcom/weibo/sdk/android/net/RequestListener;)V', u'Lcom/activity/AccountActivity;->access$18(Lcom/activity/AccountActivity; Ljava/lang/String; Ljava/lang/String; Ljava/lang/String; Ljava/lang/String; Ljava/lang/String; Ljava/lang/String;)V', u'Lcom/weibo/SinaWeiboActivity$2;->ru"
p48
sg5
S'CHANGED (JI 6.95%)'
p49
sg7
F6.9500000000000002
sa(dp50
g3
S"\nDELETED set([u'Landroid/support/v4/app/Fragment;->setIndex(I Landroid/support/v4/app/Fragment;)V', u'Landroid/support/v4/view/ViewPager;->getCurrentItem()I', u'Landroid/support/v4/view/ViewPager;->draw(Landroid/graphics/Canvas;)V', u'Landroid/support/v4/view/ViewPager;->getAdapter()Landroid/support/v4/view/PagerAdapter;', u'Landroid/support/v4/view/ViewPager;->access$300(Landroid/support/v4/view/ViewPager;)I', u'Landroid/support/v4/app/BackStackRecord;->setCustomAnimations(I I)Landroid/support/v4/app/FragmentTransaction;', u'Landroid/support/v4/app/Fragment;->getChildFragmentManager()Landroid/support/v4/app/FragmentManager;', u'Landroid/support/v4/view/ViewPager;->onDraw(Landroid/graphics/Canvas;)V', u'Landroid/support/v4/app/FragmentStatePagerAdapter;->destroyItem(Landroid/view/ViewGroup; I Ljava/lang/Object;)V', u'Landroid/support/v4/app/FragmentManagerImpl;->performPendingDeferredStart(Landroid/support/v4/app/Fragment;)V', u'Landroid/support/v4/app/Fragment;->performOptionsMenuClosed(Landro\n---\nADDED set([u'Landroid/support/v4/app/FragmentActivity;->invalidateSupportFragmentIndex(I)V', u'Landroid/support/v4/app/FragmentPagerAdapter;->makeFragmentName(I I)Ljava/lang/String;', u'Landroid/support/v4/app/FragmentManagerImpl;->moveToState(Landroid/support/v4/app/Fragment; I I I)V', u'Landroid/support/v4/app/FragmentManagerImpl;->dispatchReallyStop(Z)V', u'Landroid/support/v4/view/MenuCompat;-><clinit>()V', u'Landroid/support/v4/app/FragmentState;->instantiate(Landroid/support/v4/app/FragmentActivity;)Landroid/support/v4/app/Fragment;', u'Landroid/support/v4/view/ViewPager;->completeScroll()V', u'Landroid/support/v4/app/FragmentPagerAdapter;->destroyItem(Landroid/view/View; I Ljava/lang/Object;)V', u'Landroid/support/v4/app/Fragment;->restoreViewState()V', u'Landroid/support/v4/app/LoaderManagerImpl;-><init>(Landroid/support/v4/app/FragmentActivity; Z)V', u'Landroid/support/v4/app/FragmentActivity;->getLoaderManager(I Z Z)Landroid/support/v4/app/LoaderManagerImpl;', u'Landroid/support/v4"
p51
sg5
S'CHANGED (JI 77.88%)'
p52
sg7
F77.879999999999995
sa(dp53
g3
S"\nDELETED set([u'Lcom/squareup/okhttp/internal/Platform$JettyNpnProvider;->access$300(Lcom/squareup/okhttp/internal/Platform$JettyNpnProvider;)Z', u'Landroid/support/v4/view/MarginLayoutParamsCompatJellybeanMr1;->isMarginRelative(Landroid/view/ViewGroup$MarginLayoutParams;)Z', u'Landroid/widget/TextView;->setTextAppearance(Landroid/content/Context; I)V', u'Landroid/support/v4/app/ActivityOptionsCompat$ActivityOptionsImplJB;->update(Landroid/support/v4/app/ActivityOptionsCompat;)V', u'Landroid/util/SparseArray;->remove(I)V', u'Landroid/view/accessibility/AccessibilityRecord;->setToIndex(I)V', u'Landroid/support/v4/app/ShareCompat$IntentReader;->getEmailCc()[Ljava/lang/String;', u'Landroid/view/accessibility/AccessibilityManager;->addAccessibilityStateChangeListener(Landroid/view/accessibility/AccessibilityManager$AccessibilityStateChangeListener;)Z', u'Lcom/squareup/okhttp/internal/spdy/SpdyStream$SpdyDataInputStream;->access$400(Lcom/squareup/okhttp/internal/spdy/SpdyStream$SpdyDataInputStream;)\n---\nADDED set([u'Lcn/jpush/android/service/PushService;->a(I I Ljava/lang/String; Ljava/lang/String; Ljava/lang/String;)V', u'Lorg/apache/http/HttpEntity;->getContentLength()J', u'Lcom/util/BitmapManager;->queueJob(Ljava/lang/String; Landroid/widget/ImageView; I I)V', u'Landroid/content/Intent;->putExtra(Ljava/lang/String; Ljava/io/Serializable;)Landroid/content/Intent;', u'Lcn/jpush/android/service/k;->g()Ljava/lang/String;', u'Lorg/achartengine/chart/PieSegment;->getValue()F', u'Lcom/weibo/sdk/android/api/StatusesAPI;->mentions(J J I I Lcom/weibo/sdk/android/api/WeiboAPI$AUTHOR_FILTER; Lcom/weibo/sdk/android/api/WeiboAPI$SRC_FILTER; Lcom/weibo/sdk/android/api/WeiboAPI$TYPE_FILTER; Z Lcom/weibo/sdk/android/net/RequestListener;)V', u'Lcom/activity/CommentsActivity;->access$12(Lcom/activity/CommentsActivity;)Lcom/custom/PullToRefreshListView;', u'Lcom/tencent/mm/sdk/openapi/WXMediaMessage$IMediaObject;->unserialize(Landroid/os/Bundle;)V', u'Lcom/weibo/SinaWeiboActivity$2;->run()V', u'Lcom/push/Se"
p54
sg5
S'CHANGED (JI 12.14%)'
p55
sg7
F12.140000000000001
sa(dp56
g3
S"\nDELETED set([u'Landroid/widget/TextView;->setTextAppearance(Landroid/content/Context; I)V', u'Landroid/media/ExifInterface;->setAttribute(Ljava/lang/String; Ljava/lang/String;)V', u'Landroid/webkit/WebSettings;->setLayoutAlgorithm(Landroid/webkit/WebSettings$LayoutAlgorithm;)V', u'Landroid/util/SparseArray;->remove(I)V', u'Landroid/webkit/WebSettings;->setGeolocationEnabled(Z)V', u'Landroid/app/Activity;->setResult(I Landroid/content/Intent;)V', u'Landroid/view/View;->getResources()Landroid/content/res/Resources;', u'Landroid/support/v4/view/ViewPager;->getAdapter()Landroid/support/v4/view/PagerAdapter;', u'Landroid/widget/TextView;->setTextSize(I F)V', u'Landroid/content/Intent;->makeRestartActivityTask(Landroid/content/ComponentName;)Landroid/content/Intent;', u'Landroid/webkit/WebView;->requestFocusFromTouch()Z', u'Landroid/location/Location;->getSpeed()F', u'Ljava/util/Calendar;->getDisplayNames(I I Ljava/util/Locale;)Ljava/util/Map;', u'Landroid/support/v4/app/FragmentPagerAdapter;->makeF\n---\nADDED set([u'Landroid/widget/EditText;->requestFocus()Z', u'Ljava/lang/Character;->isLetter(C)Z', u'Lorg/apache/http/HttpEntity;->getContentLength()J', u'Landroid/content/Intent;->putExtra(Ljava/lang/String; Ljava/io/Serializable;)Landroid/content/Intent;', u'Ljava/util/TreeMap;->clear()V', u'Landroid/content/Intent;->getByteArrayExtra(Ljava/lang/String;)[B', u'Landroid/widget/ListView;-><init>(Landroid/content/Context; Landroid/util/AttributeSet; I)V', u'Landroid/support/v4/app/FragmentActivity;->getLoaderManager(I Z Z)Landroid/support/v4/app/LoaderManagerImpl;', u'Landroid/os/Handler;->obtainMessage(I I I)Landroid/os/Message;', u'Landroid/widget/ListView;->setOnScrollListener(Landroid/widget/AbsListView$OnScrollListener;)V', u'Ljava/io/RandomAccessFile;->seek(J)V', u'Ljava/util/Collections;->synchronizedMap(Ljava/util/Map;)Ljava/util/Map;', u'Landroid/graphics/Canvas;->drawPath(Landroid/graphics/Path; Landroid/graphics/Paint;)V', u'Landroid/hardware/SensorManager;->unregisterListener(Landr"
p57
sg5
S'CHANGED (JI 52.16%)'
p58
sg7
F52.159999999999997
sa(dp59
g3
S'\nDELETED set([u\'\\x00\', u\'.3gpp\', u\'Could not get websites\', u\'DateTime\', u\'umts\', u\'Error sending email \', u\'failWrite: Got exception:\', u\'vnd.android.cursor.item/contact_event\', u\' at index \', u\'; scrollable: \', u"cordova.require(\'cordova/plugin/Media\').onStatus(\'", u\'clearCache\', u"javascript:cordova.fireDocumentEvent(\'menubutton\');", u\' index requested: \', u\'android.intent.extra.KEY_EVENT\', u\'Host\', u\'about:blank\', u"cordova.fireDocumentEvent(\'hidekeyboard\');", u\'ACTION_PREVIOUS_HTML_ELEMENT\', u\',"keepCallback":\', u\'java.version\', u\' mContainerId=#\', u\'android.support.PARENT_ACTIVITY\', u\'Origin to allow: %s\', u\'upload\', u\'CordovaActivity.onCreate()\', u\'heading\', u\'/Android/data/\', u\'INVALID_STREAM\', u\'honorificSuffix\', u\'CordovaActivity.init()\', u\'Could not get name\', u\'registration_id\', u\'hide\', u\'account_name\', u\'getConnectionInfo\', u\' already has a \', u\'=====================================================================================\', u\'GCMIntentService\', u\'gap_poll:\', u\'Close Button\n---\nADDED set([u\'weixin://unregisterapp?appid=\', u\'MicroMsg.SDK.BackwardSupportUtil\', u\'PackageName: \', u\'\\u6cb3\\u5357\', u\'android.permission.INTERNET\', u\'---Send Data Is:\', u\'R\\n8h\\x02D\', u\'https://api.weibo.com/2/users/show.json\', u"\\x11\\x16.91Q>$r\'_#!r", u\'P \\x0b\\x04\\x02\\\\1\\x1e_F\\\\5\\x0f.\\x03DeRE\', u\'Z\\\\w^\\tFBw\', u\'}Jat\\x10J\\x0fbt\\x0eG\\x0fad\\x0fYFqd\', u\'https://api.weibo.com/2/place/nearby/photos.json\', u\'@\', u\'\\u6cb3\\u5317\', u\'._9e%\\x1bX<d\\x15\\x1b\', u\']\\x11_i*C\\x07l\', u\'minu %d\', u\'&type=\', u\'3O9~\\x17\\x19OjK\\x1f\\x1bF.~VS\\n+}\\x067Np\', u\'\\x12E)Y\\x0f\\x0eO9-\\x1f\\r\\x10j\', u\'XT<\\x15\\tG\', u\'PRIMARY\', u\'\\x1d\\x1e6\', u\'\\u897f\\u85cf\', u\'check need prepare: check=\', u\'InfoActivity.OnCreate()\', u\'keep_setDouble\', u\'starttime\', u\'\\u7b49\\u5f85...\', u\'Load cache:\', u\'\\x196it\\x04\\x0e>~\', u\'Z\\x0e\', u\'locked-\', u\'\\x050"\\x01A\\x0e>1A]\\x0f8\', u\'[F\\x7fd\\x0e[N\\x7fq\', u\'\\x0cO-d\\x05\\nO8\', u\'_wxapplaunchdata_launchType\', u\'\\u65b0\\u7586\', u\'10.0.0.172\', u\'LikeNum\', u\' mRetainInstance=\', u\':context=null\', u\'\\\\\\x1e?\', u\'.'
p60
sg5
S'CHANGED (JI 8.69%)'
p61
sg7
F8.6899999999999995
sa(dp62
g3
S"\nDELETED set(['Lcom/squareup/okhttp/internal/spdy/SpdyStream$SpdyDataOutputStream;->this$0 Lcom/squareup/okhttp/internal/spdy/SpdyStream; [access_flags=synthetic final]\\n', 'Landroid/support/v4/text/BidiFormatter;->RLM_STRING Ljava/lang/String; [access_flags=private static final]\\n', 'Lcom/squareup/okhttp/internal/http/ResponseHeaders;->sMaxAgeSeconds I [access_flags=private]\\n', 'Lorg/apache/cordova/Notification$1;->val$cordova Lorg/apache/cordova/api/CordovaInterface; [access_flags=synthetic final]\\n', 'Lorg/apache/cordova/Notification$1;->val$title Ljava/lang/String; [access_flags=synthetic final]\\n', 'Lorg/apache/cordova/CordovaActivity;->TAG Ljava/lang/String; [access_flags=public static]\\n', 'Lorg/apache/cordova/ExifHelper;->gpsTimestamp Ljava/lang/String; [access_flags=private]\\n', 'Lcom/squareup/okhttp/internal/http/ResponseHeaders;->lastModified Ljava/util/Date; [access_flags=private]\\n', 'Lcom/squareup/okhttp/internal/http/ResponseHeaders;->uri Ljava/net/URI; [access_flags=private fin\n---\nADDED set(['Lcn/jpush/android/service/PushService;->r Z [access_flags=private static]\\n', 'Lcn/jpush/android/a;->z [Ljava/lang/String; [access_flags=private static final]\\n', 'Lcom/baidu/mobstat/l;->b Ljava/lang/String; [access_flags=private]\\n', 'Lcom/tencent/mm/sdk/contact/RContact;->field_nickname Ljava/lang/String; [access_flags=public]\\n', 'Lcom/activity/WebActivity$1;->val$activity Landroid/app/Activity; [access_flags=private synthetic final]\\n', 'Lcom/activity/CollegeActivity$9;->val$tempIndex I [access_flags=private synthetic final]\\n', 'Lcn/jpush/android/b/d;->w Z [access_flags=private]\\n', 'Landroid/support/v4/view/ViewPager$DataSetObserver;->this$0 Landroid/support/v4/view/ViewPager; [access_flags=synthetic final]\\n', 'Lcn/jpush/android/a/d;->B Lcn/jpush/android/a/c; [access_flags=private]\\n', 'Lcom/activity/QuotesActivity$1;->this$0 Lcom/activity/QuotesActivity; [access_flags=synthetic final]\\n', 'Lcom/weibo/sdk/android/sso/SsoHandler;->ssoPackageName Ljava/lang/String; [access_f"
p63
sg5
S'CHANGED (JI 7.77%)'
p64
sg7
F7.7699999999999996
sa.