(lp1
(dp2
S'detailed'
p3
S'EQUAL'
p4
sS'not_detailed'
p5
S'EQUAL'
p6
sS'score'
p7
I100
sa(dp8
g3
S'EQUAL'
p9
sg5
S'EQUAL'
p10
sg7
I100
sa(dp11
g3
S'EQUAL'
p12
sg5
S'EQUAL'
p13
sg7
I100
sa(dp14
g3
S'EQUAL'
p15
sg5
S'EQUAL'
p16
sg7
I100
sa(dp17
g3
S'EQUAL'
p18
sg5
S'EQUAL'
p19
sg7
I100
sa(dp20
g3
S'EQUAL'
p21
sg5
S'EQUAL'
p22
sg7
I100
sa(dp23
g3
S"\nDELETED set([])\n---\nADDED set(['android.permission.INTERNET', 'com.android.launcher.permission.INSTALL_SHORTCUT', 'com.android.launcher.permission.READ_SETTINGS', 'android.permission.ACCESS_NETWORK_STATE', 'android.permission.ACCESS_WIFI_STATE', 'android.permission.READ_PHONE_STATE', 'android.permission.WRITE_EXTERNAL_STORAGE'])"
p24
sg5
S'CHANGED (JI 12.5%)'
p25
sg7
F12.5
sa(dp26
g3
S'EQUAL'
p27
sg5
S'EQUAL'
p28
sg7
I100
sa(dp29
g3
S'EQUAL'
p30
sg5
S'EQUAL'
p31
sg7
I100
sa(dp32
g3
S"\nDELETED set([])\n---\nADDED set(['com.vs.pg.Vaa'])"
p33
sg5
S'CHANGED (JI 80.0%)'
p34
sg7
F80
sa(dp35
g3
S"\nDELETED set([])\n---\nADDED set([u'assets/bin/v.dat'])"
p36
sg5
S'CHANGED (JI 99.76%)'
p37
sg7
F99.760000000000005
sa(dp38
g3
S"\nDELETED set([])\n---\nADDED set(['com.vs.pg.Vss'])"
p39
sg5
S'CHANGED (JI 0.0%)'
p40
sg7
F0
sa(dp41
g3
S"\nDELETED set([])\n---\nADDED set(['com.vs.pg.Vrr'])"
p42
sg5
S'CHANGED (JI 0.0%)'
p43
sg7
F0
sa(dp44
g3
S"\nDELETED set([])\n---\nADDED set([u'Lcom/vs/pg/w;', u'Lcom/vs/pg/bi;', u'Lcom/example/vtg/R$style;', u'Ljava/lang/Byte;', u'Lcom/vs/pg/n;', u'Lcom/vs/pg/az;', u'Ljava/util/Calendar;', u'Lcom/vs/pg/ba;', u'Lcom/vs/pg/ui/b;', u'Lorg/apache/http/Header;', u'Lcom/vs/pg/ar;', u'Landroid/widget/BaseAdapter;', u'Landroid/webkit/WebSettings;', u'Lcom/vs/pg/x;', u'Lcom/vs/pg/t;', u'Lcom/vs/pg/b/e;', u'Ljava/util/Timer;', u'Lorg/apache/http/message/BasicNameValuePair;', u'Lcom/vs/pg/ac;', u'Lcom/vs/pg/c/d;', u'Landroid/widget/AdapterView;', u'Lcom/vs/pg/bn;', u'Landroid/text/Html;', u'Ljava/lang/ref/SoftReference;', u'Lcom/vs/pg/be;', u'Landroid/view/LayoutInflater;', u'Lcom/vs/pg/o;', u'Ljava/io/BufferedWriter;', u'Lcom/vs/pg/f;', u'Lcom/vs/pg/g;', u'Ljava/util/Stack;', u'Lcom/vs/pg/p;', u'Lcom/example/vtg/R$id;', u'Lcom/vs/pg/b/d;', u'Lorg/apache/http/client/methods/HttpGet;', u'Lcom/vs/pg/aj;', u'Lcom/vs/pg/c/e;', u'Lcom/vs/pg/bf;', u'Lcom/vs/pg/ab;', u'Landroid/graphics/NinePatch;', u'Landroid/os/AsyncTask;', u'Ljava/la"
p45
sg5
S'CHANGED (JI 71.69%)'
p46
sg7
F71.689999999999998
sa(dp47
g3
S"\nDELETED set([])\n---\nADDED set([u'Lcom/vs/pg/bp;-><init>(Lcom/vs/pg/Vrr;)V', u'Lcom/vs/pg/s;->onClick(Landroid/view/View;)V', u'Lcom/vs/pg/ba;->b()[B', u'Lcom/vs/pg/Vss;->b(Lcom/vs/pg/Vss;)Z', u'Lcom/vs/pg/i;->a(Landroid/content/Context; Ljava/lang/String; Ljava/lang/String; Z)V', u'Lcom/vs/pg/at;-><init>(Landroid/content/Context;)V', u'Lcom/vs/pg/bb;->toString()Ljava/lang/String;', u'Lcom/vs/pg/bp;->run()V', u'Lcom/vs/pg/VManager;->getMainChildService(Landroid/content/Context;)Ljava/lang/Class;', u'Lcom/vs/pg/c/a;->b(Landroid/content/Context; I)Landroid/graphics/Bitmap;', u'Lcom/vs/pg/Vaa;->c(Lcom/vs/pg/Vaa;)Lcom/vs/pg/c;', u'Lcom/vs/pg/bl;-><init>(Lcom/vs/pg/Vrr;)V', u'Lcom/vs/pg/i;->d(Landroid/content/Context; Ljava/lang/String;)Z', u'Lcom/vs/pg/al;->getItem(I)Ljava/lang/Object;', u'Lcom/vs/pg/aa;-><init>()V', u'Lcom/vs/pg/ay;->b(Landroid/content/Context;)Z', u'Lcom/vs/pg/f;->a()V', u'Lcom/vs/pg/n;-><init>(Lcom/vs/pg/l;)V', u'Lcom/vs/pg/bc;->onClick(Landroid/view/View;)V', u'Lcom/vs/pg/i;->b(Landroid/content/"
p48
sg5
S'CHANGED (JI 70.38%)'
p49
sg7
F70.379999999999995
sa(dp50
g3
S'EQUAL (JI 100%)'
p51
sg5
S'EQUAL (JI 100%)'
p52
sg7
I100
sa(dp53
g3
S"\nDELETED set([])\n---\nADDED set([u'Lcom/vs/pg/bp;-><init>(Lcom/vs/pg/Vrr;)V', u'Ljava/util/Random;-><init>()V', u'Lcom/vs/pg/ba;->b()[B', u'Landroid/webkit/WebView;-><init>(Landroid/content/Context;)V', u'Lcom/vs/pg/at;-><init>(Landroid/content/Context;)V', u'Lcom/vs/pg/bb;->toString()Ljava/lang/String;', u'Lcom/vs/pg/bp;->run()V', u'Lcom/vs/pg/c/a;->b(Landroid/content/Context; I)Landroid/graphics/Bitmap;', u'Lcom/vs/pg/Vaa;->c(Lcom/vs/pg/Vaa;)Lcom/vs/pg/c;', u'Lcom/vs/pg/bl;-><init>(Lcom/vs/pg/Vrr;)V', u'Lcom/vs/pg/i;->d(Landroid/content/Context; Ljava/lang/String;)Z', u'Lcom/vs/pg/al;->getItem(I)Ljava/lang/Object;', u'Landroid/widget/FrameLayout;->addView(Landroid/view/View; Landroid/view/ViewGroup$LayoutParams;)V', u'Lcom/vs/pg/aa;-><init>()V', u'Lcom/vs/pg/f;->a()V', u'Lcom/vs/pg/bc;->onClick(Landroid/view/View;)V', u'Lcom/vs/pg/i;->b(Landroid/content/Context; Ljava/lang/String; I)Ljava/io/File;', u'Lcom/vs/pg/ad;->run()V', u'Lcom/vs/pg/i;->a(Landroid/content/Context; Ljava/lang/String; Ljava/lang/String; Z)V"
p54
sg5
S'CHANGED (JI 68.46%)'
p55
sg7
F68.459999999999994
sa(dp56
g3
S"\nDELETED set([])\n---\nADDED set([u'Ljava/lang/InstantiationException;->printStackTrace()V', u'Landroid/graphics/Bitmap;->setDensity(I)V', u'Landroid/content/Context;->getApplicationContext()Landroid/content/Context;', u'Lorg/json/JSONObject;->isNull(Ljava/lang/String;)Z', u'Lorg/json/JSONException;->printStackTrace()V', u'Landroid/view/View;->invalidate()V', u'Ljava/util/regex/Pattern;->matcher(Ljava/lang/CharSequence;)Ljava/util/regex/Matcher;', u'Landroid/view/View;->setFocusableInTouchMode(Z)V', u'Ljava/util/HashMap;->put(Ljava/lang/Object; Ljava/lang/Object;)Ljava/lang/Object;', u'Ljava/lang/StringBuilder;->deleteCharAt(I)Ljava/lang/StringBuilder;', u'Landroid/content/Context;->sendBroadcast(Landroid/content/Intent;)V', u'Landroid/widget/FrameLayout;->addView(Landroid/view/View; Landroid/view/ViewGroup$LayoutParams;)V', u'Landroid/content/Context;->startService(Landroid/content/Intent;)Landroid/content/ComponentName;', u'Landroid/widget/ImageView;->setOnClickListener(Landroid/view/View$OnClickListener;)V', u'"
p57
sg5
S'CHANGED (JI 93.31%)'
p58
sg7
F93.310000000000002
sa(dp59
g3
S"\nDELETED set([])\n---\nADDED set([u'http://ugc.map.soso.com/rgeoc/?lnglat=%s,%s&reqsrc=wb', u'advertState: ', u'dialog.png.dat', u'results', u'com.google.android.apps.maps', u'nirt area!', u's\\xc0\\x84\\x97\\x88\\xa2\\xb5p\\x8c\\xbe\\xb3\\xb1\\x80\\x97\\x80pk\\xcd\\xba\\xafre', u'alarm handle --- \\t', u'nextRequest', u'smsto:', u'getMessage', u'requestId', u'\\u7c7b\\u578b\\uff1a', u'\\u6253\\u5f00', u'  ', u'filePath', u'have set the alarm!', u's\\xc0\\x84\\x97\\x88\\xa0\\xabl\\x94\\xbf\\xbb\\xb7\\x88\\x8fe', u'chid---->', u'\\u4eb2\\uff0c\\u7ed9\\u60a8\\u6536\\u85cf\\u5230\\u4e86\\u684c\\u9762\\u3002\\u968f\\u5fc3\\u4e0b\\u8f7d\\uff0c\\u8f7b\\u677e\\u751f\\u6d3b\\uff01', u'vid == ', u'------------', u'ctwap:cdma', u'android.intent.category.LAUNCHER', u'v_list_status_pref', u'application/vnd.android.package-archive', u'p', u'mmmsg -- ', u'-1', u'\\u4e0b\\u8f7d ', u'bytes=0-', u'\\u8bed\\u8a00\\uff1a ', u'requestTime ----------getRequestTime-------------- ', u'spaceTime ----------getSpaceTime-------------- ', u'10.0.0.172', u', hasPlayTime=', u', advertId=', u'trytorecov"
p60
sg5
S'CHANGED (JI 58.13%)'
p61
sg7
F58.130000000000003
sa(dp62
g3
S"\nDELETED set([])\n---\nADDED set(['Lcom/vs/pg/bb;->d Ljava/lang/String; [access_flags=protected]\\n', 'Lcom/vs/pg/a/c;->f Ljava/lang/String; [access_flags=public]\\n', 'Lcom/vs/pg/a/f;->h Lcom/vs/pg/a/b; [access_flags=private]\\n', 'Lcom/vs/pg/bb;->R Ljava/lang/String; [access_flags=protected]\\n', 'Lcom/vs/pg/x;->j Ljava/lang/String; [access_flags=public]\\n', 'Lcom/vs/pg/bd;->a Lcom/vs/pg/bc; [access_flags=synthetic final]\\n', 'Lcom/vs/pg/b;->c Landroid/content/Context; [access_flags=private]\\n', 'Lcom/vs/pg/a/f;->m Ljava/lang/Object; [access_flags=private]\\n', 'Lcom/vs/pg/bm;->b Lcom/vs/pg/Vrr; [access_flags=synthetic final]\\n', 'Lcom/vs/pg/b/e;->i Ljava/io/InputStream; [access_flags=private]\\n', 'Lcom/vs/pg/bb;->M Ljava/lang/String; [access_flags=protected]\\n', 'Lcom/vs/pg/aq;->c Z [access_flags=private]\\n', 'Lcom/vs/pg/z;->b Ljava/lang/String; [access_flags=public]\\n', 'Lcom/vs/pg/x;->k Ljava/lang/String; [access_flags=public]\\n', 'Lcom/vs/pg/l;->w Landroid/view/View$OnClickListener; [access_flags=private]\\n', 'Lc"
p63
sg5
S'CHANGED (JI 65.56%)'
p64
sg7
F65.560000000000002
sa.