(lp1
(dp2
S'detailed'
p3
S'DIFFERENT: 1!=4'
p4
sS'not_detailed'
p5
S'CHANGED'
p6
sS'score'
p7
I0
sa(dp8
g3
S'DIFFERENT: 1.0!=1.3'
p9
sg5
S'CHANGED'
p10
sg7
I0
sa(dp11
g3
S'DIFFERENT: 8!=4'
p12
sg5
S'CHANGED'
p13
sg7
I0
sa(dp14
g3
S'EQUAL'
p15
sg5
S'EQUAL'
p16
sg7
I100
sa(dp17
g3
S'DIFFERENT: 16!=None'
p18
sg5
S'CHANGED'
p19
sg7
I0
sa(dp20
g3
S'DIFFERENT: 16!=4'
p21
sg5
S'CHANGED'
p22
sg7
I0
sa(dp23
g3
S"\nDELETED set(['android.permission.RECEIVE_BOOT_COMPLETED', 'android.permission.GET_ACCOUNTS', 'com.gmail.alexis.binary1101.ropeman.permission.C2D_MESSAGE', 'com.google.android.c2dm.permission.RECEIVE', 'com.android.vending.BILLING'])\n---\nADDED set(['android.permission.ACCESS_FINE_LOCATION', 'android.permission.ACCESS_COARSE_LOCATION'])"
p24
sg5
S'CHANGED (JI 22.22%)'
p25
sg7
F22.219999999999999
sa(dp26
g3
S'DIFFERENT: com.gmail.alexis.binary1101.ropeman!=org.fankong.m'
p27
sg5
S'CHANGED'
p28
sg7
I0
sa(dp29
g3
S'DIFFERENT: Rope Man!=Alert terrorist'
p30
sg5
S'CHANGED'
p31
sg7
I0
sa(dp32
g3
S"\nDELETED set(['com.ansca.corona.facebook.FacebookFragmentActivity', 'com.ansca.corona.CoronaActivity', 'com.ansca.corona.purchasing.StoreActivity', 'com.facebook.LoginActivity', 'com.ansca.corona.CameraActivity', 'com.ansca.corona.VideoActivity'])\n---\nADDED set(['org.fankong.m..fanActivity'])"
p33
sg5
S'CHANGED (JI 12.5%)'
p34
sg7
F12.5
sa(dp35
g3
S"\nDELETED set([u'assets/assets/images/player/player@4x.png', u'assets/assets/images/title-flare@2x.png', u'assets/assets/images/shop/item2@4x.png', u'assets/assets/sounds/018_Ex unhook_you can use it for any other stuff.mp3', u'res/drawable-xhdpi/com_facebook_button_grey_pressed.9.png', u'lib/armeabi-v7a/libmpg123.so', u'assets/assets/sounds/007_Revive.mp3', u'res/drawable/com_facebook_list_section_header_background.9.png', u'assets/assets/images/shop/item1@4x.png', u'assets/assets/images/building-2@4x.png', u'assets/assets/sounds/013_Elements on screen V2.mp3', u'res/drawable-mdpi-v11/corona_statusbar_icon_default.png', u'res/drawable-hdpi/com_facebook_logo.png', u'assets/assets/images/balloon@4x.png', u'res/drawable/com_facebook_icon.png', u'assets/Icon-Small.png', u'assets/assets/sounds/009_Win on wheel of fortune.mp3', u'assets/Icon-mdpi.png', u'assets/assets/images/player/sprite/frames/player_run-2.png', u'assets/assets/images/shop/title@2x.png', u'assets/assets/images/building-1.png', u'as\n---\nADDED set(['assets/scene/lab/npcData40.mid', 'assets/frame/word/alert/09.png', 'assets/scene/dust/0002.png', 'assets/npc/temp/explode/Slice.mid', 'assets/npc/temp/boomalone2/Frame.mid', 'assets/scene/topHill/019.png', 'assets/npc/26/Img0.png', 'assets/scene/lab/0045.png', 'assets/frame/lab/30.png', 'assets/npc/25/Img1.png', 'assets/frame/share.png', 'assets/frame/face/17.png', 'assets/npc/npc/midredcir.png', 'assets/scene/dust/bgRect12.mid', 'assets/frame/face/53.png', 'assets/gun/Img7.png', 'assets/uidata/xiaoguan.uid', 'assets/frame/face/42.png', 'assets/uidata/querentanchu2.uid', 'assets/npcpic/2.png', 'assets/npc/0/Action.mid', 'assets/scene/lab/bg42.mid', 'assets/npc/temp/item/Slice.mid', 'assets/npc/26/Frame.mid', 'assets/uidata/zhuangbei0.uid', 'assets/frame/word/2.png', 'res/drawable-mdpi/buttom.PNG', 'assets/frame/new/9.png', 'assets/npc/other/Img7.png', 'assets/scene/topFloor/npcData3.mid', 'assets/npc/temp/tiaodao1/Img0.png', 'assets/scene/topHill/036.png', 'assets/npc/temp/fire/F"
p36
sg5
S'CHANGED (JI 0.58%)'
p37
sg7
F0.57999999999999996
sa(dp38
g3
S"\nDELETED set(['com.ansca.corona.CoronaService'])\n---\nADDED set([])"
p39
sg5
S'CHANGED (JI 0.0%)'
p40
sg7
F0
sa(dp41
g3
S"\nDELETED set(['com.ansca.corona.notifications.AlarmManagerBroadcastReceiver', 'com.ansca.corona.notifications.GoogleCloudMessagingBroadcastReceiver', 'com.ansca.corona.purchasing.GoogleStoreBroadcastReceiver', 'com.ansca.corona.SystemStartupBroadcastReceiver', 'com.ansca.corona.notifications.StatusBarBroadcastReceiver'])\n---\nADDED set([])"
p42
sg5
S'CHANGED (JI 0.0%)'
p43
sg7
F0
sa(dp44
g3
S"\nDELETED set([u'Lcom/google/android/gms/location/LocationClient;', u'Landroid/support/v4/widget/SearchViewCompatHoneycomb$1;', u'Lcom/ansca/corona/CoronaSensorManager$AccelerometerMonitor$TimerHandler;', u'Lcom/ansca/corona/graphics/opengl/GLSurfaceView$EglHelper;', u'Lplugin/google/iap/v3/util/IabResult;', u'Lcom/google/android/gms/maps/model/LatLngBounds;', u'[Lcom/google/ads/g$a;', u'Lcom/facebook/widget/PickerFragment$4;', u'Lcom/ansca/corona/input/TouchTrackerCollection;', u'Ljava/util/concurrent/BlockingQueue;', u'Lcom/naef/jnlua/NativeSupport$Loader;', u'Lcom/google/android/gms/location/ActivityRecognitionResultCreator;', u'Lcom/google/android/gms/internal/bp$aj;', u'Lcom/naef/jnlua/DefaultConverter$4;', u'[Lcom/facebook/internal/SessionAuthorizationType;', u'Landroid/support/v4/app/FragmentManager$OnBackStackChangedListener;', u'Ljava/util/concurrent/TimeUnit;', u'Lcom/google/android/gms/location/LocationListener;', u'Lcom/ansca/corona/purchasing/StoreTransactionState;', u'Lcom/google/a\n---\nADDED set([u'Ljava/io/DataInput;', u'Ljavax/microedition/lcdui/Canvas;', u'Lorg/fankong/m/R$layout;', u'Lcom/flurry/android/o;', u'Lcom/flurry/android/InstallReceiver;', u'Lcom/nokia/mid/ui/FullCanvas;', u'Ljava/util/StringTokenizer;', u'Lcom/flurry/android/k;', u'Lcom/flurry/android/t;', u'Lj;', u'Ljavax/microedition/midlet/MIDletStateChangeException;', u'Lcom/flurry/android/c;', u'Lo;', u'Ljavax/microedition/io/Datagram;', u'Lcom/delphi/ui/UData;', u'Lgame/Gun;', u'Lcom/delphi/ui/UCommandListener;', u'Lcom/flurry/android/d;', u'Ljavax/microedition/lcdui/game/LayerManager;', u'Ljavax/microedition/lcdui/CwaActivity;', u'Lgame/GameLogic;', u'Lcom/flurry/android/Constants;', u'Lgame/EncUtil;', u'Lb;', u'Lc$d;', u'Lc$b;', u'Lcom/flurry/android/ah;', u'Ljavax/microedition/media/Control;', u'Lgame/Prop;', u'Ljavax/microedition/io/ConnectionNotFoundException;', u'Ljavax/microedition/io/ServerSocketConnection;', u'Lcom/delphi/ui/UFocus;', u'Ljavax/microedition/lcdui/game/Sprite;', u'Lgame/libGame/C"
p45
sg5
S'CHANGED (JI 6.18%)'
p46
sg7
F6.1799999999999997
sa(dp47
g3
S"\nDELETED set([u'Lcom/ansca/corona/CoronaLuaErrorHandler$2;->run()V', u'Lcom/naef/jnlua/script/LuaScriptEngine;->loadChunk(Ljava/lang/String; Ljavax/script/ScriptContext;)V', u'Lcom/facebook/model/GraphObject$Factory$GraphObjectListImpl;->put(I Ljava/lang/Object;)V', u'Lcom/google/android/gms/internal/dv;->getPosition()Lcom/google/android/gms/maps/model/LatLng;', u'Lcom/google/android/gms/internal/bh$4;->b(Lcom/google/android/gms/dynamic/LifecycleDelegate;)V', u'Lcom/facebook/widget/WebDialog;->setUpWebView(I)V', u'Lcom/ansca/corona/AudioRecorder$MemoryRecorder;-><init>(Lcom/ansca/corona/AudioRecorder; Lcom/ansca/corona/AudioRecorder$1;)V', u'Landroid/support/v4/app/ListFragment;->setListShown(Z)V', u'Lcom/google/android/gms/internal/ep;->hasGender()Z', u'Lcom/ansca/corona/storage/FileServices;->writeToFile(Ljava/io/InputStream; Ljava/io/File;)Z', u'Lcom/ansca/corona/facebook/FacebookFragmentActivity$3;->onDoneButtonClicked(Lcom/facebook/widget/PickerFragment;)V', u'Lcom/google/android/gms/inter\n---\nADDED set([u'Lcom/delphi/ui/UTextField;->setHeight(I)V', u'Lgame/QCSCanvas;->paintSrc(Ljavax/microedition/lcdui/Graphics; [Ljava/lang/String; I I I I)Z', u'Lgame/GameLogic;->gameMainFaceInit()V', u'Lgame/GameLogic;->loadPlayer()V', u'Lcom/flurry/android/CallbackEvent;->setMessage(Ljava/lang/String;)V', u'Lcom/delphi/ui/UTextBox;->setContentAlign(I)V', u'Lc$e;->run()V', u'Lgame/QCSCanvas;->paintMainFace(Ljavax/microedition/lcdui/Graphics;)V', u'Lcom/flurry/android/u;->c(Ljava/lang/String;)Ljava/util/List;', u'Lcom/flurry/android/u;->m()Lcom/flurry/android/AdImage;', u'Lcom/flurry/android/u;->a(Ljava/lang/String; Ljava/lang/String;)V', u'Ljavax/microedition/lcdui/Font;->getDefaultFont()Ljavax/microedition/lcdui/Font;', u'La;->a(Landroid/webkit/WebView; Ljava/lang/String; Ljava/lang/String;)V', u'Lcom/flurry/android/FlurryAgent;->d(Lcom/flurry/android/FlurryAgent;)Landroid/os/Handler;', u'Lcom/delphi/ui/UCommandListener;->execute(Ljava/lang/String;)V', u'Lgame/QCSCanvas;->pointerReleased(I I)V'"
p48
sg5
S'CHANGED (JI 0.57%)'
p49
sg7
F0.56999999999999995
sa(dp50
g3
S"\nDELETED set([u'Lcom/google/ads/util/b;->a(Ljava/lang/String; Ljava/lang/Throwable;)V', u'Lcom/google/ads/AdView;->setSupportedAdSizes([Lcom/google/ads/AdSize;)V', u'Lcom/google/ads/util/a;->b(Z Ljava/lang/String;)V', u'Lcom/google/ads/AdView;->a(Ljava/lang/String; Landroid/util/AttributeSet;)Z', u'Lcom/google/ads/util/b$a;-><clinit>()V', u'Lcom/google/ads/AdActivity;->a(I I I I)Landroid/widget/RelativeLayout$LayoutParams;', u'Lcom/google/ads/AdRequest;->getPlusOneOptOut()Z', u'Lcom/google/ads/AdRequest;->getBirthday()Ljava/util/Date;', u'Lcom/google/ads/util/b$a;-><init>(Ljava/lang/String; I I)V', u'Lcom/google/ads/util/b;->a(Ljava/lang/String; I)Z', u'Lcom/google/ads/util/b;->c(Ljava/lang/String;)V', u'Lcom/google/ads/AdRequest;->setBirthday(Ljava/lang/String;)Lcom/google/ads/AdRequest;', u'Lcom/google/ads/AdRequest;->a()Lcom/google/ads/mediation/admob/AdMobAdapterExtras;', u'Lcom/google/ads/AdActivity;->newAdVideoView(I I I I)V', u'Lcom/google/ads/AdActivity;->launchAdActivity(Lcom/google/ad\n---\nADDED set([u'Lcom/google/ads/util/a;->d(Ljava/lang/String;)V', u'Lcom/google/ads/AdRequest$Gender;->toString()Ljava/lang/String;', u'Lcom/google/ads/util/c;->a(Landroid/content/Context; F I)I', u'Lcom/google/ads/util/AdUtil;->a(Landroid/location/Location;)Ljava/lang/String;', u'Lcom/google/ads/util/a;->b(Ljava/lang/String; Ljava/lang/Throwable;)V', u'Lcom/google/ads/util/b$b;-><init>()V', u'Lcom/google/ads/util/b;-><clinit>()V', u'Lcom/google/ads/util/a;-><init>()V', u'Lcom/google/ads/AdRequest;->addTestDevice(Ljava/lang/String;)V', u'Lcom/google/ads/util/b$b;-><clinit>()V', u'Lcom/google/ads/util/c;->b(Landroid/content/Context; Landroid/util/DisplayMetrics;)I', u'Lcom/google/ads/util/b$a;-><init>()V', u'Lcom/google/ads/util/AdUtil;->g(Landroid/content/Context;)V', u'Lcom/google/ads/AdActivity;->getOpeningAdWebView()Lg;', u'Lcom/google/ads/util/a;->c(Ljava/lang/String;)V', u'Lcom/google/ads/util/c;->a(Landroid/content/Context; Landroid/util/DisplayMetrics;)I', u'Lcom/google/ads/AdActivity;->"
p51
sg5
S'CHANGED (JI 34.76%)'
p52
sg7
F34.759999999999998
sa(dp53
g3
S"\nDELETED set([u'Lcom/ansca/corona/CoronaLuaErrorHandler$2;->run()V', u'Lcom/naef/jnlua/script/LuaScriptEngine;->loadChunk(Ljava/lang/String; Ljavax/script/ScriptContext;)V', u'Lcom/facebook/model/GraphObject$Factory$GraphObjectListImpl;->put(I Ljava/lang/Object;)V', u'Landroid/content/Intent;->putExtra(Ljava/lang/String; Ljava/io/Serializable;)Landroid/content/Intent;', u'Landroid/view/accessibility/AccessibilityRecord;->setToIndex(I)V', u'Lcom/facebook/widget/WebDialog;->setUpWebView(I)V', u'Lcom/ansca/corona/AudioRecorder$MemoryRecorder;-><init>(Lcom/ansca/corona/AudioRecorder; Lcom/ansca/corona/AudioRecorder$1;)V', u'Landroid/app/Fragment;->onLowMemory()V', u'Landroid/support/v4/app/ListFragment;->setListShown(Z)V', u'Landroid/view/accessibility/AccessibilityManager;->addAccessibilityStateChangeListener(Landroid/view/accessibility/AccessibilityManager$AccessibilityStateChangeListener;)Z', u'Landroid/content/Intent;->setAction(Ljava/lang/String;)Landroid/content/Intent;', u'Lcom/google/androi\n---\nADDED set([u'Lorg/apache/http/HttpEntity;->getContentLength()J', u'Lgame/QCSCanvas;->paintSrc(Ljavax/microedition/lcdui/Graphics; [Ljava/lang/String; I I I I)Z', u'Lgame/GameLogic;->gameMainFaceInit()V', u'Lcom/delphi/ui/UTextBox;->setContentAlign(I)V', u'Lc$e;->run()V', u'Lcom/flurry/android/u;->c(Ljava/lang/String;)Ljava/util/List;', u'Lcom/flurry/android/u;->m()Lcom/flurry/android/AdImage;', u'Lcom/flurry/android/u;->a(Ljava/lang/String; Ljava/lang/String;)V', u'Ljavax/microedition/lcdui/Font;->getDefaultFont()Ljavax/microedition/lcdui/Font;', u'Lcom/delphi/ui/UCommandListener;->execute(Ljava/lang/String;)V', u'Lcom/delphi/ui/UBaseUI;->getUIFromTitle(Ljava/lang/String;)Lcom/delphi/ui/UBaseUI;', u'Landroid/graphics/Canvas;->drawText(Ljava/lang/String; I I F F Landroid/graphics/Paint;)V', u'Lcom/flurry/android/ag;->a(Lcom/flurry/android/o;)V', u'Lorg/fankong/m/fanActivity;->onStop()V', u'Lgame/GameLogic;->gunTouch(I I)V', u'Lf;->h()J', u'Lgame/GameLogic;->gameTitleKey()V', u'Lgame/GameLogic"
p54
sg5
S'CHANGED (JI 3.28%)'
p55
sg7
F3.2799999999999998
sa(dp56
g3
S"\nDELETED set([u'Ljava/util/List;->indexOf(Ljava/lang/Object;)I', u'Landroid/widget/TextView;->setTextAppearance(Landroid/content/Context; I)V', u'Landroid/content/Intent;->putExtra(Ljava/lang/String; Ljava/io/Serializable;)Landroid/content/Intent;', u'Lorg/json/JSONArray;->getJSONObject(I)Lorg/json/JSONObject;', u'Landroid/content/Intent;->putExtra(Ljava/lang/String; I)Landroid/content/Intent;', u'Landroid/webkit/WebSettings;->setDomStorageEnabled(Z)V', u'Landroid/content/Context;->obtainStyledAttributes(I [I)Landroid/content/res/TypedArray;', u'Lcom/google/ads/util/b;->d(Ljava/lang/String;)V', u'Landroid/content/Intent;->setAction(Ljava/lang/String;)Landroid/content/Intent;', u'Landroid/media/MediaPlayer;->setAudioStreamType(I)V', u'Landroid/os/Looper;->myLooper()Landroid/os/Looper;', u'Lorg/json/JSONObject;->names()Lorg/json/JSONArray;', u'Ljava/util/HashSet;->contains(Ljava/lang/Object;)Z', u'Landroid/graphics/Bitmap;->getConfig()Landroid/graphics/Bitmap$Config;', u'Landroid/webkit/WebViewCl\n---\nADDED set([u'Ljava/lang/StackTraceElement;->getClassName()Ljava/lang/String;', u'Landroid/widget/ImageView;->setMaxHeight(I)V', u'Lcom/google/ads/util/a;->b(Ljava/lang/String; Ljava/lang/Throwable;)V', u'Landroid/webkit/WebView;->loadData(Ljava/lang/String; Ljava/lang/String; Ljava/lang/String;)V', u'Ljava/util/Collections;->emptyMap()Ljava/util/Map;', u'Landroid/media/MediaPlayer;->getCurrentPosition()I', u'Landroid/graphics/Canvas;->getClipBounds()Landroid/graphics/Rect;', u'Ljava/util/Collections;->shuffle(Ljava/util/List;)V', u'Landroid/graphics/Canvas;->drawText(Ljava/lang/String; I I F F Landroid/graphics/Paint;)V', u'Lcom/google/ads/util/b$b;-><clinit>()V', u'Landroid/graphics/Paint;->reset()V', u'Ljava/util/Random;->nextInt()I', u'Landroid/graphics/Paint;->measureText([C I I)F', u'Ljava/lang/Integer;->toString(I I)Ljava/lang/String;', u'Lcom/google/ads/util/AdUtil;->g(Landroid/content/Context;)V', u'Ljava/net/HttpURLConnection;->getHeaderFieldKey(I)Ljava/lang/String;', u'Lcom/google/"
p57
sg5
S'CHANGED (JI 33.33%)'
p58
sg7
F33.329999999999998
sa(dp59
g3
S'\nDELETED set([u\'EVERYONE\', u\'\\\'progress\\\' value of params table was invalid, if provided, must be either "upload" or "download", but was: "%s"\', u\'auth.expireSession failed\', u\'basic_info\', u\'SUPPRESS_SSO\', u\'SignInButton\', u\'isLoadAdTaskSuccessful() called when isLoadAdTaskDone() is false.\', u\' mTag=\', u\'REQUEST_ID\', u\'bad base-64\', u\'GoogleAdMobDoritosLife\', u\'hatY\', u\'hatX\', u\' did not call through to super.onDestroyView()\', u\'  %s:\\t%s\\n\', u\' index requested: \', u\'com.google.android.gms.appstate.internal.IAppStateCallbacks\', u\'Querying SKU details.\', u\'com.android.vending.licensing.ILicenseResultListener\', u"Missing \'to\'", u\'charset=\', u\'com.google.android.gms.extras.uri\', u\'No corona activity\', u\'Header not found (invalid data or key):\', u\'Disabling hardware acceleration on collapsing MRAID WebView.\', u\' token:\', u\' Picture \', u\'com.facebook.platform.extra.EXPIRES_SECONDS_SINCE_EPOCH\', u"{\'event\': \'canplaythrough\', \'duration\': \'", u\'onAdClicked()\', u\'GR\', u\'_eventName\', u\'invalid quality: \n---\nADDED set([u\'PLAYER IS ERROR\', u\'\\u4f60\\u63d2\\u69fd\\u8d2d\\u4e70\\u4e2a\\u6570\\u5df2\\u8fbe\\u4e0a\\u9650\\uff01\', u\'Cannot find offer \', u\'Cannot find hook: \', u\'&ats=\', u\'\\u9996\\u5148\\uff0c\\u6211\\u51c6\\u5907\\u4e86\\u6b66\\u5668\\uff0c\\u8fd9\\u628a\\u5de6\\u8f6e\\u9001\\u4f60\\u4e86\\u3002\\u867d\\u7136\\u4e00\\u6b21\\u53ea\\u80fd\\u4f7f\\u7528\\uff16\\u53d1\\u5b50\\u5f39\\uff0c\\u4f46\\u706b\\u529b\\u5f88\\u5f3a\\uff0c\\u666e\\u901a\\u654c\\u4eba\\uff0c\\u4e00\\u67aa\\u6bd9\\u4e4b\\u3002\\u800c\\u4e14\\u6211\\u53ef\\u4ee5\\u7ed9\\u4f60\\u63d0\\u4f9b\\u65e0\\u9650\\u5f39\\u836f\\uff01\', u\'\\u8d8a\\u72f1\\uff1f\\u8c08\\u4f55\\u5bb9\\u6613\\u3002\\u4e14\\u4e0d\\u8bf4\\u5168\\u526f\\u6b66\\u88c5\\u7684\\u72f1\\u8b66\\uff0c\\u5355\\u662f\\u66b4\\u4e71\\u7684\\u72af\\u4eba\\uff0c\\u5c31\\u5f88\\u96be\\u5bf9\\u4ed8\\u4e86\\u3002\\u4f60\\u8fd9\\u4e48\\u7626\\u5c0f\\uff0c\\u9047\\u5230\\u654c\\u4eba\\u600e\\u4e48\\u529e\\uff1f\\u62ff\\u7259\\u5237\\u6233\\u6b7b\\u4ed6\\u4eec\\uff1f\', u\'/scene/topFloor/\', u\'Canvas\', u\'\\u73b0\\u5728\\u4e0d\\u8981\\u60f3\\u90a3\\u4e48\\u591a\\uff0c\\u5148\\u5b8c\\u6210\\u4efb\\u52a1\\u5427\\uff01'
p60
sg5
S'CHANGED (JI 6.88%)'
p61
sg7
F6.8799999999999999
sa(dp62
g3
S"\nDELETED set(['Lcom/google/ads/internal/g;->l Z [access_flags=private]\\n', 'Lcom/google/ads/internal/g;->a Ljava/util/LinkedList; [access_flags=private final]\\n', 'Lcom/google/ads/e;->c Ljava/lang/Object; [access_flags=private final]\\n', 'Lcom/google/android/gms/games/leaderboard/SubmitScoreResult;->ey Ljava/util/HashMap; [access_flags=private]\\n', 'Lcom/ansca/corona/events/MediaEvent$Event;->LoadSound Lcom/ansca/corona/events/MediaEvent$Event; [access_flags=public static enum final]\\n', 'Lcom/ansca/corona/ViewManager$19;->val$id I [access_flags=synthetic final]\\n', 'Lcom/naef/jnlua/LuaState;->finalizeGuardian Ljava/lang/Object; [access_flags=private]\\n', 'Lcom/ansca/corona/ViewManager$17;->val$alpha F [access_flags=synthetic final]\\n', 'Lcom/ansca/corona/Controller$8;->this$0 Lcom/ansca/corona/Controller; [access_flags=synthetic final]\\n', 'Lcom/google/ads/util/g$a$4;->a Landroid/webkit/JsPromptResult; [access_flags=synthetic final]\\n', 'Lcom/google/android/gms/internal/cm$a;->fJ Lcom/google/a\n---\nADDED set(['Lgame/GameLogicAttachment;->temp_random I [access_flags=0x0]\\n', 'Lgame/cwa/GameInfo;->b_b_circle_speed [[I [access_flags=public]\\n', 'Lgame/GameLogic;->teachtextChoice I [access_flags=0x0]\\n', 'Lcom/flurry/android/x;->b Ljava/lang/String; [access_flags=0x0]\\n', 'Lgame/Man;->npcState I [access_flags=public]\\n', 'Lgame/GameLogic;->tiaodao_teach [I [access_flags=0x0]\\n', 'Lcom/flurry/android/u;->t Z [access_flags=private]\\n', 'Lcom/flurry/android/ah;->b I [access_flags=private static]\\n', 'Lcom/delphi/ui/UBaseUI;->isTransparent Z [access_flags=public]\\n', 'Lcom/flurry/android/OfferInSdk;->f Lcom/flurry/android/AdImage; [access_flags=0x0]\\n', 'Lgame/GameLogic;->canvas Lgame/QCSCanvas; [access_flags=public static]\\n', 'Lgame/QCSCanvas;->FONTHEIGHT I [access_flags=0x0]\\n', 'Lgame/GameLogic;->uapposeUI [Lcom/delphi/ui/UBaseUI; [access_flags=0x0]\\n', 'Ljavax/microedition/midlet/MIDletManager;->smsReceiveListener Ljavax/wireless/messaging/util/SMSReceiverListener; [access_flags=private]\\"
p63
sg5
S'CHANGED (JI 0.41%)'
p64
sg7
F0.40999999999999998
sa.