(lp1
(dp2
S'detailed'
p3
S'DIFFERENT: 25!=16'
p4
sS'not_detailed'
p5
S'CHANGED'
p6
sS'score'
p7
I0
sa(dp8
g3
S'DIFFERENT: 4!=1.01'
p9
sg5
S'CHANGED'
p10
sg7
I0
sa(dp11
g3
S'DIFFERENT: 6!=3'
p12
sg5
S'CHANGED'
p13
sg7
I0
sa(dp14
g3
S'EQUAL'
p15
sg5
S'EQUAL'
p16
sg7
I100
sa(dp17
g3
S'DIFFERENT: 15!=4'
p18
sg5
S'CHANGED'
p19
sg7
I0
sa(dp20
g3
S'DIFFERENT: 15!=4'
p21
sg5
S'CHANGED'
p22
sg7
I0
sa(dp23
g3
S"\nDELETED set(['com.android.vending.BILLING', 'android.permission.INTERNET'])\n---\nADDED set(['android.permission.WRITE_EXTERNAL_STORAGE'])"
p24
sg5
S'CHANGED (JI 0.0%)'
p25
sg7
F0
sa(dp26
g3
S'DIFFERENT: com.spinfall.frogonice.app!=bander.fileman'
p27
sg5
S'CHANGED'
p28
sg7
I0
sa(dp29
g3
S'DIFFERENT: Frog on Ice!=FileMan'
p30
sg5
S'CHANGED'
p31
sg7
I0
sa(dp32
g3
S"\nDELETED set(['com.unity3d.player.VideoPlayer', 'com.unity3d.player.UnityPlayerNativeActivity', 'com.unity3d.player.UnityPlayerProxyActivity', 'com.unity3d.player.UnityPlayerActivity'])\n---\nADDED set(['bander.fileman..Preferences', 'bander.fileman..Main', 'bander.fileman..Properties', 'bander.fileman..TextViewer'])"
p33
sg5
S'CHANGED (JI 0.0%)'
p34
sg7
F0
sa(dp35
g3
S"\nDELETED set(['assets/bin/Data/sharedassets1.assets', 'META-INF/FROGONIC.DSA', 'assets/bin/Data/sharedassets3.assets.resS', 'assets/bin/Data/sharedassets7.assets', 'assets/bin/Data/Managed/Mono.Security.dll', 'assets/bin/Data/Managed/Assembly-UnityScript-firstpass.dll', 'assets/bin/Data/sharedassets15.assets', 'assets/bin/Data/level20', 'assets/bin/Data/sharedassets20.assets', 'lib/armeabi-v7a/libunity.so', 'assets/bin/Data/unity default resources', 'assets/bin/Data/sharedassets8.assets', 'assets/bin/Data/Managed/UnityEngine.dll', 'assets/bin/Data/sharedassets14.assets', 'assets/bin/Data/sharedassets12.assets', 'assets/bin/Data/Managed/UnityScript.Lang.dll', 'assets/bin/Data/sharedassets18.assets', 'assets/bin/Data/sharedassets16.assets', 'assets/bin/Data/level14', 'res/drawable-hdpi/app_icon.png', 'assets/bin/Data/sharedassets2.assets', 'assets/bin/Data/sharedassets5.assets', 'assets/bin/Data/sharedassets10.assets', 'assets/bin/Data/Managed/System.Core.dll', 'assets/bin/Data/Managed/System.dll\n---\nADDED set(['res/layout/properties.xml', 'res/drawable-mdpi-v6/icon.png', 'res/layout/main.xml', 'res/drawable/audio.png', 'res/layout/list_item_1.xml', 'res/drawable/checkbox.xml', 'META-INF/CERT.SF', 'res/drawable/ic_menu_paste.png', 'res/xml/preferences.xml', 'res/drawable/checkbox_off_background.png', 'res/drawable-hdpi-v6/icon.png', 'res/drawable/pdf.png', 'res/drawable/folder.png', 'res/layout/list_item_2.xml', 'res/drawable/text.png', 'res/drawable/video.png', 'res/drawable/apk.png', 'res/drawable/checkbox_on_background.png', 'res/drawable/icon.png', 'res/drawable/document.png', 'res/drawable/image.png', 'res/layout/textviewer.xml', 'res/drawable/parent.png', 'META-INF/CERT.RSA', 'res/drawable-ldpi-v6/icon.png', 'res/drawable/ic_menu_refresh.png'])"
p36
sg5
S'CHANGED (JI 3.85%)'
p37
sg7
F3.8500000000000001
sa(dp38
g3
S"\nDELETED set(['com.prime31.billing.BillingService'])\n---\nADDED set([])"
p39
sg5
S'CHANGED (JI 0.0%)'
p40
sg7
F0
sa(dp41
g3
S"\nDELETED set(['com.prime31.billing.BillingReceiver', 'com.amazon.inapp.purchasing.ResponseReceiver'])\n---\nADDED set([])"
p42
sg5
S'CHANGED (JI 0.0%)'
p43
sg7
F0
sa(dp44
g3
S"\nDELETED set([u'Ljava/io/FileNotFoundException;', u'Landroid/widget/ImageView;', u'Lcom/amazon/android/framework/prompt/PromptManager;', u'Ljava/lang/ref/WeakReference;', u'Landroid/widget/RelativeLayout$LayoutParams;', u'Lcom/unity3d/player/m;', u'Lcom/amazon/inapp/purchasing/KiwiRequestHandler$4;', u'Ljava/lang/reflect/Modifier;', u'Landroid/view/SurfaceHolder;', u'Landroid/view/SurfaceView;', u'Lcom/unity3d/player/UnityJavaRunnable;', u'Lcom/unity3d/player/a/f$a;', u'Lcom/unity3d/player/UnityPlayer$17;', u'Ljava/util/LinkedHashMap;', u'Lcom/unity3d/player/k;', u'Ljava/lang/Class;', u'Lcom/unity3d/player/a/l;', u'Landroid/media/AudioTrack;', u'Ljava/lang/RuntimeException;', u'Lcom/unity3d/player/a$1;', u'Lcom/prime31/billing/BillingService;', u'Ljavax/crypto/spec/IvParameterSpec;', u'Lcom/amazon/inapp/purchasing/KiwiPurchaseRequestCommandTask;', u'Lcom/android/vending/billing/IMarketBillingService$Stub$Proxy;', u'Ljavax/crypto/spec/PBEKeySpec;', u'Lcom/amazon/android/framework/task/command/Ab\n---\nADDED set([u'Ljava/text/Format;', u'Ljava/io/BufferedInputStream;', u'Lbander/fileman/R$string;', u'Ljava/io/BufferedOutputStream;', u'Lbander/fileman/R$id;', u'Lbander/fileman/Properties$2;', u'Landroid/app/ListActivity;', u'Lbander/fileman/R$array;', u'Ljava/text/DecimalFormat;', u'Lbander/fileman/Main$3;', u'Landroid/widget/SimpleAdapter;', u'Lbander/fileman/Main$1;', u'Lbander/fileman/Properties;', u'Ljava/io/FileOutputStream;', u'Lbander/fileman/R$attr;', u'Landroid/view/Menu;', u'Landroid/preference/PreferenceActivity;', u'Landroid/text/Editable;', u'Lbander/fileman/Main$Sorting;', u'Landroid/preference/ListPreference;', u'Landroid/text/format/DateFormat;', u'Ljava/nio/channels/FileChannel;', u'Landroid/widget/Toast;', u'Lbander/fileman/Properties$1;', u'Lbander/fileman/Preferences;', u'Lbander/fileman/R$drawable;', u'Lbander/fileman/Main$FileComparer;', u'Lbander/fileman/R$layout;', u'Landroid/widget/CheckBox;', u'Ljava/text/NumberFormat;', u'Lbander/fileman/R$xml;', u'Landroid/view/C"
p45
sg5
S'CHANGED (JI 5.65%)'
p46
sg7
F5.6500000000000004
sa(dp47
g3
S"\nDELETED set([u'Lcom/prime31/billing/util/Base64DecoderException;-><init>()V', u'Lcom/prime31/IABPlugin;->stopService()V', u'Lcom/amazon/inapp/purchasing/Item$ItemType;->valueOf(Ljava/lang/String;)Lcom/amazon/inapp/purchasing/Item$ItemType;', u'Lcom/prime31/billing/IABConstants$PurchaseState;->valueOf(I)Lcom/prime31/billing/IABConstants$PurchaseState;', u'Lcom/amazon/inapp/purchasing/KiwiBaseCommandTask;->getDateFromString(Ljava/lang/String;)Ljava/util/Date;', u'Lcom/unity3d/player/q;->run()V', u'Lcom/unity3d/player/a/e$a;->b(Lcom/unity3d/player/a/e$a;)V', u'Lcom/prime31/AmazonIAPPlugin;->purchaseUpdateResponseToJSON(Ljava/util/Set; Ljava/util/Set;)Ljava/lang/String;', u'Lcom/prime31/billing/BillingService;-><init>()V', u'Lcom/unity3d/player/UnityPlayer$2;-><init>(Lcom/unity3d/player/UnityPlayer;)V', u'Lcom/unity3d/player/UnityJavaRunnable;->nativeRun(I)V', u'Lcom/prime31/billing/PurchaseObserver;-><init>(Landroid/app/Activity; Landroid/os/Handler;)V', u'Lcom/amazon/inapp/purchasing/ItemDataReq\n---\nADDED set([u'Lbander/fileman/TextViewer;-><init>()V', u'Lbander/fileman/Properties$2;->onClick(Landroid/view/View;)V', u'Lbander/fileman/Main;-><init>()V', u'Lbander/fileman/Properties;-><init>()V', u'Lbander/fileman/Main;->listDirectory(Ljava/io/File;)V', u'Lbander/fileman/TextViewer;->onCreate(Landroid/os/Bundle;)V', u'Lbander/fileman/Properties;->setChecked(I Z)V', u'Lbander/fileman/Main;->getSelectedFile(Ljava/lang/String;)Ljava/io/File;', u'Lbander/fileman/Properties;->onOptionsItemSelected(Landroid/view/MenuItem;)Z', u'Lbander/fileman/Main;->onCreate(Landroid/os/Bundle;)V', u'Lbander/fileman/Main$Sorting;->valueOf(Ljava/lang/String;)Lbander/fileman/Main$Sorting;', u'Lbander/fileman/Main;->onCreateOptionsMenu(Landroid/view/Menu;)Z', u'Lbander/fileman/Main;->showAlertDialog(Ljava/lang/String; Ljava/lang/String; Landroid/content/DialogInterface$OnClickListener;)V', u'Lbander/fileman/Properties;->fillView()V', u'Lbander/fileman/Main;->onOptionsItemSelected(Landroid/view/MenuItem;)Z', u'Lba"
p48
sg5
S'CHANGED (JI 0.0%)'
p49
sg7
F0
sa(dp50
g3
S'EQUAL (JI 100%)'
p51
sg5
S'EQUAL (JI 100%)'
p52
sg7
I100
sa(dp53
g3
S"\nDELETED set([u'Lcom/prime31/billing/util/Base64DecoderException;-><init>()V', u'Lorg/xmlpull/v1/XmlPullParserFactory;->newInstance()Lorg/xmlpull/v1/XmlPullParserFactory;', u'Lorg/json/JSONArray;->getJSONObject(I)Lorg/json/JSONObject;', u'Landroid/content/Intent;->putExtra(Ljava/lang/String; I)Landroid/content/Intent;', u'Lorg/xmlpull/v1/XmlPullParserFactory;->setNamespaceAware(Z)V', u'Lcom/prime31/IABPlugin;->stopService()V', u'Lcom/unity3d/player/x;->getWindow()Landroid/view/Window;', u'Lcom/amazon/inapp/purchasing/Item$ItemType;->valueOf(Ljava/lang/String;)Lcom/amazon/inapp/purchasing/Item$ItemType;', u'Landroid/hardware/Camera;->setPreviewCallbackWithBuffer(Landroid/hardware/Camera$PreviewCallback;)V', u'Landroid/util/Log;->e(Ljava/lang/String; Ljava/lang/String; Ljava/lang/Throwable;)I', u'Lcom/prime31/billing/IABConstants$PurchaseState;->valueOf(I)Lcom/prime31/billing/IABConstants$PurchaseState;', u'Landroid/media/MediaPlayer;->setAudioStreamType(I)V', u'Lcom/unity3d/player/q;->run()V', u\n---\nADDED set([u'Lbander/fileman/Properties$2;->onClick(Landroid/view/View;)V', u'Landroid/preference/PreferenceActivity;-><init>()V', u'Landroid/widget/TextView;->setText(Ljava/lang/CharSequence;)V', u'Lbander/fileman/TextViewer;->onCreate(Landroid/os/Bundle;)V', u'Landroid/content/Intent;->setAction(Ljava/lang/String;)Landroid/content/Intent;', u'Lbander/fileman/TextViewer;->setContentView(I)V', u'Landroid/view/Menu;->getItem(I)Landroid/view/MenuItem;', u'Lbander/fileman/Properties;->onOptionsItemSelected(Landroid/view/MenuItem;)Z', u'Landroid/preference/PreferenceActivity;->onCreate(Landroid/os/Bundle;)V', u'Lbander/fileman/Preferences;->addPreferencesFromResource(I)V', u'Landroid/preference/ListPreference;->setOnPreferenceChangeListener(Landroid/preference/Preference$OnPreferenceChangeListener;)V', u'Lbander/fileman/TextViewer;->onCreateOptionsMenu(Landroid/view/Menu;)Z', u'Lbander/fileman/Main;-><init>()V', u'Lbander/fileman/Properties;->fillView()V', u'Ljava/io/FileOutputStream;->getChanne"
p54
sg5
S'CHANGED (JI 2.53%)'
p55
sg7
F2.5299999999999998
sa(dp56
g3
S"\nDELETED set([u'Ljava/lang/Float;->parseFloat(Ljava/lang/String;)F', u'Landroid/app/Activity;->startActivity(Landroid/content/Intent;)V', u'Ljava/lang/System;->currentTimeMillis()J', u'Landroid/content/Intent;->putExtra(Ljava/lang/String; I)Landroid/content/Intent;', u'Landroid/app/Activity;->getComponentName()Landroid/content/ComponentName;', u'Landroid/content/SharedPreferences;->registerOnSharedPreferenceChangeListener(Landroid/content/SharedPreferences$OnSharedPreferenceChangeListener;)V', u'Landroid/app/Activity;->getPackageName()Ljava/lang/String;', u'Ljava/lang/String;->charAt(I)C', u'Ljava/lang/System;->loadLibrary(Ljava/lang/String;)V', u'Ljava/lang/String;-><init>(Ljava/lang/String;)V', u'Landroid/widget/EditText;->setClickable(Z)V', u'Ljava/io/FileInputStream;->getFD()Ljava/io/FileDescriptor;', u'Landroid/os/Bundle;->putLong(Ljava/lang/String; J)V', u'Landroid/app/Activity;->runOnUiThread(Ljava/lang/Runnable;)V', u'Ljava/util/Map;->remove(Ljava/lang/Object;)Ljava/lang/Object;', u'Lan\n---\nADDED set([u'Ljava/io/File;->renameTo(Ljava/io/File;)Z', u'Landroid/content/Intent;->setAction(Ljava/lang/String;)Landroid/content/Intent;', u'Landroid/content/Intent;->createChooser(Landroid/content/Intent; Ljava/lang/CharSequence;)Landroid/content/Intent;', u'Ljava/io/File;->delete()Z', u'Landroid/widget/EditText;->setEnabled(Z)V', u'Landroid/app/Activity;->onCreateOptionsMenu(Landroid/view/Menu;)Z', u'Ljava/util/Date;-><init>(J)V', u'Ljava/io/File;->canRead()Z', u'Ljava/lang/Integer;->valueOf(Ljava/lang/String;)Ljava/lang/Integer;', u'Ljava/io/File;->getAbsolutePath()Ljava/lang/String;', u'Landroid/net/Uri;->toString()Ljava/lang/String;', u'Ljava/util/List;->clear()V', u'Landroid/app/AlertDialog$Builder;->setIcon(I)Landroid/app/AlertDialog$Builder;', u'Landroid/content/SharedPreferences;->getBoolean(Ljava/lang/String; Z)Z', u'Ljava/io/File;->lastModified()J', u'Ljava/io/File;->createNewFile()Z', u'Ljava/io/File;->getName()Ljava/lang/String;', u'Landroid/widget/EditText;->setTextSize(F)V',"
p57
sg5
S'CHANGED (JI 22.13%)'
p58
sg7
F22.129999999999999
sa(dp59
g3
S"\nDELETED set([u'unavilable skus: ', u'/cache', u': ', u'RESTORE_TRANSACTIONS', u'Error in sendPurchaseRequest.', u'CheckBillingSupported response code: ', u'response_type', u'REQUEST_ID', u'go', u'android.permission.VIBRATE not available?', u'  %s: %d\\n', u' AAx', u'PurchasingObserver registered: ', u'purchase failed with responseCode: ', u'sendPurchaseResponseReceivedRequest', u'service DISconnected', u'android.opengl.GLSurfaceView$GLWrapper', u'Not running Unity from an Activity; ignored...', u'0', u'data is null', u'requestId', u'/lib', u'subscriptionEndDate', u'AmazonIAPManager', u'BILLING_REQUEST', u'GT', u'string', u'EGL_MAX_PBUFFER_WIDTH', u'currentActivity', u'armeabi', u' and location ', u' SKUs were provided, but no more than ', u'vibrator', u'IOException', u'Running Runnable for sendItemDataRequest with SKUs: ', u'lastResponse', u'onException, result: ', u'RESULT_ERROR', u'PurchasingManagerHandlerThread', u'Y29tLmFuZHJvaWQudmVuZGluZy5DSEVDS19MSUNFTlNF', u'EGL_LUMINANCE_SIZE', u'p', u\n---\nADDED set([u'textSize', u'text/xml', u'image/jpeg', u'cfg', u'image/png', u'\\n', u'\\r', u'jpeg', u'mid', u'apk', u'mp4', u'audio/wav', u'mp3', u'conf', u'jpe', u'txt', u'android.intent.action.SEND', u'application/pdf', u'size', u'xml', u'*/*', u'NONE', u'audio/x-ms-wma', u'gif', u'currentDirectory', u'wmv', u'image/gif', u'html', u'sortOrder', u'rc', u'wav', u'hideDot', u'android.intent.action.EDIT', u'htm', u'isDirectory', u'audio/midi', u'G', u'audio/mpeg', u'nameTo', u'K', u'M', u'nameFrom', u'text/plain', u'jpg', u'audio/aac', u'video/x-ms-wmv', u'wma', u'png', u'SIZE', u'csv', u'originalText', u'NAME', u'aac', u'16', u'application/vnd.android.package-archive', u'lastModified', u'midi', u'video/mp4', u'text/html', u'\\r\\n', u'length', u'video/x-msvideo', u'pdf', u'detailedView', u'icon', u'avi'])"
p60
sg5
S'CHANGED (JI 0.95%)'
p61
sg7
F0.94999999999999996
sa(dp62
g3
S"\nDELETED set(['Lcom/unity3d/player/UnityPlayer$16;->a I [access_flags=private synthetic]\\n', 'Lcom/unity3d/player/UnityPlayer;->I Z [access_flags=private]\\n', 'Lcom/amazon/inapp/purchasing/SandboxRequestHandler$4;->val$location Ljava/lang/String; [access_flags=synthetic final]\\n', 'Lcom/unity3d/player/a/k;->d Ljava/lang/String; [access_flags=public]\\n', 'Lcom/amazon/inapp/purchasing/KiwiResponseHandler$ResponseType;->item_response Lcom/amazon/inapp/purchasing/KiwiResponseHandler$ResponseType; [access_flags=public static enum final]\\n', 'Lcom/unity3d/player/c;->a Landroid/content/ContextWrapper; [access_flags=protected final]\\n', 'Lcom/unity3d/player/a/c$a$a;->a Landroid/os/IBinder; [access_flags=private]\\n', 'Lcom/unity3d/player/b/a;->b [B [access_flags=private static final]\\n', 'Lcom/unity3d/player/a/e$a;->a Lcom/unity3d/player/a/e; [access_flags=synthetic final]\\n', 'Lcom/amazon/inapp/purchasing/PurchaseResponse;->_requestId Ljava/lang/String; [access_flags=private final]\\n', 'Lcom/unity3d/pl\n---\nADDED set(['Lbander/fileman/Main$2;->this$0 Lbander/fileman/Main; [access_flags=synthetic final]\\n', 'Lbander/fileman/Main$1;->this$0 Lbander/fileman/Main; [access_flags=synthetic final]\\n', 'Lbander/fileman/Main;->mHideDot Ljava/lang/Boolean; [access_flags=private]\\n', 'Lbander/fileman/TextViewer;->mText Landroid/widget/EditText; [access_flags=private]\\n', 'Lbander/fileman/Main;->mDirectoryEntries Ljava/util/List; [access_flags=private]\\n', 'Lbander/fileman/Properties$1;->this$0 Lbander/fileman/Properties; [access_flags=synthetic final]\\n', 'Lbander/fileman/Main$FileComparer;->this$0 Lbander/fileman/Main; [access_flags=synthetic final]\\n', 'Lbander/fileman/TextViewer;->mFile Ljava/io/File; [access_flags=private]\\n', 'Lbander/fileman/Main;->mClipboardAction I [access_flags=private]\\n', 'Lbander/fileman/Main$Sorting;->ENUM$VALUES [Lbander/fileman/Main$Sorting; [access_flags=private synthetic static final]\\n', 'Lbander/fileman/Main;->mClipboardFile Ljava/io/File; [access_flags=private]\\n', 'Lb"
p63
sg5
S'CHANGED (JI 0.0%)'
p64
sg7
F0
sa.