(lp1
(dp2
S'detailed'
p3
S'DIFFERENT: 212!=9140'
p4
sS'not_detailed'
p5
S'CHANGED'
p6
sS'score'
p7
I0
sa(dp8
g3
S'DIFFERENT: 2.1.2!=1.4'
p9
sg5
S'CHANGED'
p10
sg7
I0
sa(dp11
g3
S'DIFFERENT: 8!=7'
p12
sg5
S'CHANGED'
p13
sg7
I0
sa(dp14
g3
S'EQUAL'
p15
sg5
S'EQUAL'
p16
sg7
I100
sa(dp17
g3
S'DIFFERENT: 16!=13'
p18
sg5
S'CHANGED'
p19
sg7
I0
sa(dp20
g3
S'DIFFERENT: 16!=13'
p21
sg5
S'CHANGED'
p22
sg7
I0
sa(dp23
g3
S"\nDELETED set([])\n---\nADDED set(['android.permission.WAKE_LOCK', 'android.permission.GET_TASKS', 'android.permission.READ_PHONE_STATE', 'android.permission.INTERNET', 'android.permission.WRITE_EXTERNAL_STORAGE', 'com.android.vending.BILLING', 'android.permission.ACCESS_NETWORK_STATE'])"
p24
sg5
S'CHANGED (JI 0.0%)'
p25
sg7
F0
sa(dp26
g3
S'DIFFERENT: com.canupa.omicron!=com.angrymobgames.muffinknightfree'
p27
sg5
S'CHANGED'
p28
sg7
I0
sa(dp29
g3
S'DIFFERENT: Omicron!=Muffin Knight FREE'
p30
sg5
S'CHANGED'
p31
sg7
I0
sa(dp32
g3
S"\nDELETED set(['com.ansca.corona.facebook.FacebookFragmentActivity', 'com.ansca.corona.CoronaActivity', 'com.ansca.corona.purchasing.StoreActivity', 'com.facebook.LoginActivity', 'com.ansca.corona.CameraActivity', 'com.ansca.corona.VideoActivity'])\n---\nADDED set(['com.tapjoy.TJCOffersWebView', 'com.tapjoy.TapjoyPluginActivity', 'com.openfeint.internal.ui.Settings', 'com.tapjoy.TapjoyFeaturedAppWebView', 'com.tapjoy.TapjoyVideoView', 'com.openfeint.internal.ui.IntroFlow', 'com.openfeint.internal.ui.NativeBrowser', 'com.unity3d.player.UnityPlayerActivity', 'com.openfeint.api.ui.Dashboard'])"
p33
sg5
S'CHANGED (JI 0.0%)'
p34
sg7
F0
sa(dp35
g3
S"\nDELETED set(['assets/img/bmpMask580x210.png', 'res/layout/com_facebook_picker_image.xml', 'assets/Icon-mdpi.png', 'lib/armeabi-v7a/libmpg123.so', 'assets/cls/', 'assets/Futura-Light.ttf', 'res/drawable-hdpi/com_facebook_logo.png', 'assets/aSnd/malhit06a.wav', 'assets/aSnd/scorebing02.wav', 'assets/Icon-Small.png', 'res/drawable-mdpi/icon.png', 'res/drawable-xhdpi/com_facebook_button_grey_pressed.9.png', 'assets/aSnd/powerup_slowdown01.wav', 'assets/snd/', 'assets/img/timeZoomI.png', 'assets/aSnd/', 'lib/armeabi-v7a/libgameNetwork.so', 'assets/Icon-Small-50@2x.png', 'assets/Icon-hdpi.png', 'res/drawable/com_facebook_list_section_header_background.9.png', 'res/drawable-xhdpi/ic_menu_camera.png', 'assets/Icon-76@2x.png', 'res/layout/com_facebook_usersettingsfragment.xml', 'res/layout/com_facebook_placepickerfragment.xml', 'assets/build.settings.old', 'res/drawable-xhdpi/ic_maps_indicator_current_position.png', 'lib/armeabi-v7a/liblicensing.so', 'assets/img/timeZoom.png', 'assets/Icon-60.png', 're\n---\nADDED set(['assets/bin/Data/0cba3f0f6cd9348b2a0ec6815cd96623', 'assets/bin/Data/sharedassets3.assets.streamingResourceImage', 'res/drawable-hdpi/ofgamefeedbackgroundbottomlandscape.png', 'res/drawable/of_icon_dashboard_exit.png', 'res/drawable/ofgamebarlargedisclosure.png', 'res/drawable/of_native_loader_progress_01.png', 'assets/bin/Data/98e406b5b313444fcaabbb983c04a429', 'res/drawable-xhdpi/ofgamebarservererroricon.png', 'res/drawable-xhdpi/ofgamefeedbadgeiconlandscape.png', 'res/drawable-xhdpi/ofgamebarcelldividerlandscape.png', 'assets/bin/Data/5d3607ef76fa94c7ea3bbbf9d54988d5', 'res/drawable/gameicon.png', 'res/drawable/ofgamebarservererroricon.png', 'res/drawable-hdpi/ofgamebarleaderboardsicon.png', 'res/drawable-hdpi/oflandscapeadbordercell.png', 'assets/bin/Data/9b24a6ba12f1e445db0352ee5701b983', 'assets/bin/Data/77bcbf5346d7a407a90dcb98f2ea647a', 'assets/bin/Data/6fc5c884de5b543aebad7d8bb7de204a', 'assets/bin/Data/889b49263deb9463d92bb343928aea5c', 'assets/bin/Data/Managed/System.Se"
p36
sg5
S'CHANGED (JI 0.68%)'
p37
sg7
F0.68000000000000005
sa(dp38
g3
S"\nDELETED set(['com.ansca.corona.CoronaService'])\n---\nADDED set(['com.prime31.billing.BillingService'])"
p39
sg5
S'CHANGED (JI 0.0%)'
p40
sg7
F0
sa(dp41
g3
S"\nDELETED set(['com.ansca.corona.notifications.AlarmManagerBroadcastReceiver', 'com.ansca.corona.notifications.GoogleCloudMessagingBroadcastReceiver', 'com.ansca.corona.purchasing.GoogleStoreBroadcastReceiver', 'com.ansca.corona.SystemStartupBroadcastReceiver', 'com.ansca.corona.notifications.StatusBarBroadcastReceiver'])\n---\nADDED set(['com.prime31.billing.BillingReceiver', 'com.tapjoy.TapjoyReferralTracker'])"
p42
sg5
S'CHANGED (JI 0.0%)'
p43
sg7
F0
sa(dp44
g3
S"\nDELETED set([u'Lcom/ansca/corona/ViewManager;', u'Landroid/support/v4/widget/SearchViewCompatHoneycomb$1;', u'Lcom/ansca/corona/CoronaSensorManager$AccelerometerMonitor$TimerHandler;', u'Ljava/lang/ref/WeakReference;', u'Lcom/ansca/corona/Controller$8;', u'Lnetwork/NetworkRequest$LuaCallback;', u'Lcom/facebook/android/FbDialog;', u'Lcom/naef/jnlua/JavaModule$IPairs$ArrayNext;', u'Ljava/util/zip/ZipException;', u'Lcom/naef/jnlua/script/LuaScriptEngine$ReaderInputStream;', u'LCoronaProvider/licensing/google/LuaLoader$LoadExpansionFilesWrapper;', u'Lcom/facebook/AuthorizationClient$WebViewAuthHandler;', u'Lnetwork/NetworkRequest$ProgressDirection;', u'Landroid/support/v4/content/ModernAsyncTask$InternalHandler;', u'Lcom/naef/jnlua/JavaModule$Proxy;', u'Lcom/ansca/corona/CoronaWebView$1;', u'Lcom/ansca/corona/events/GyroscopeEvent;', u'Lcom/ansca/corona/R$raw;', u'Lcom/naef/jnlua/DefaultJavaReflector$LessThan;', u'Ljava/nio/charset/CharsetEncoder;', u'Lcom/facebook/model/GraphPlace;', u'Lcom/ansca\n---\nADDED set([u'Lcom/openfeint/api/resource/Achievement$2;', u'Lcom/openfeint/gamefeed/GameFeedSettings$AlignmentType;', u'Lcom/openfeint/api/resource/User$11;', u'Lcom/tapjoy/TapjoyPluginActivity$2;', u'Lcom/openfeint/internal/eventlog/IEventListener;', u'Lcom/openfeint/gamefeed/element/image/ImageElement$ImageType;', u'Lcom/openfeint/api/resource/CurrentUser;', u'Ljava/io/StringReader;', u'Lcom/openfeint/internal/eventlog/EventLogDispatcher;', u'Lcom/tapjoy/TapjoyURLConnection;', u'Lcom/openfeint/gamefeed/element/image/ImageLoader;', u'Lcom/openfeint/gamefeed/item/analytics/GameFeedDecorator;', u'Lcom/tapjoy/TapjoyFeaturedAppWebView$TapjoyWebViewClient;', u'Lcom/tapjoy/TapjoyVideo$1;', u'Lorg/apache/http/client/methods/HttpEntityEnclosingRequestBase;', u'Lcom/openfeint/internal/ui/WebViewCache$1;', u'Lcom/openfeint/internal/OpenFeintInternal$7;', u'Lcom/openfeint/internal/vendor/org/codehaus/jackson/impl/ArrayWContext;', u'Lcom/unity3d/player/UnityPlayer$17;', u'Lcom/openfeint/internal/reques"
p45
sg5
S'CHANGED (JI 10.3%)'
p46
sg7
F10.300000000000001
sa(dp47
g3
S"\nDELETED set([u'Lcom/ansca/corona/CoronaLuaErrorHandler$2;->run()V', u'Lcom/naef/jnlua/script/LuaScriptEngine;->loadChunk(Ljava/lang/String; Ljavax/script/ScriptContext;)V', u'Lcom/facebook/model/GraphObject$Factory$GraphObjectListImpl;->put(I Ljava/lang/Object;)V', u'Lcom/facebook/internal/FileLruCache$CopyingInputStream;->read([B)I', u'Lcom/facebook/widget/WebDialog;->setUpWebView(I)V', u'Landroid/support/v4/app/ListFragment;->setListShown(Z)V', u'Lcom/facebook/Session;->onActivityResult(Landroid/app/Activity; I I Landroid/content/Intent;)Z', u'Lcom/ansca/corona/input/InputDeviceType;->from(Landroid/view/KeyEvent;)Lcom/ansca/corona/input/InputDeviceType;', u'Landroid/support/v4/view/PagerTitleStrip$PageListener;->onPageSelected(I)V', u'Lcom/ansca/corona/storage/ZipFileEntryInputStream;->tryOpen(Ljava/util/zip/ZipFile; Ljava/lang/String;)Lcom/ansca/corona/storage/ZipFileEntryInputStream;', u'Landroid/support/v4/app/FragmentManagerImpl;->dispatchLowMemory()V', u'Landroid/support/v4/app/DialogFr\n---\nADDED set([u'Lcom/unity3d/player/b$2;-><init>(Lcom/unity3d/player/b; Landroid/content/Context;)V', u'Lcom/tapjoy/TapjoyConnect;->getBannerY()I', u'Lcom/openfeint/internal/vendor/org/codehaus/jackson/impl/JsonParserBase;->loadMoreGuaranteed()V', u'Lcom/unity3d/player/e$a$a;->chooseConfig(Ljavax/microedition/khronos/egl/EGL10; Ljavax/microedition/khronos/egl/EGLDisplay;)Ljavax/microedition/khronos/egl/EGLConfig;', u'Lcom/prime31/IABPlugin;->stopService()V', u'Lcom/openfeint/internal/vendor/org/codehaus/jackson/impl/Utf8StreamParser;->_decodeCharForError(I)I', u'Lcom/angrymobgames/openfeint/MainActivity$2;->run()V', u'Lcom/openfeint/internal/ui/WebViewCache$ManifestItem;-><init>(Ljava/lang/String; Ljava/lang/String;)V', u'Lcom/openfeint/internal/ui/Settings$SettingsActionHandler;->access$0(Lcom/openfeint/internal/ui/Settings$SettingsActionHandler;)Lcom/openfeint/internal/ui/Settings;', u'Lcom/openfeint/internal/vendor/org/codehaus/jackson/impl/JsonParserBase;->_throwInternal()V', u'Lcom/openfei"
p48
sg5
S'CHANGED (JI 0.0%)'
p49
sg7
F0
sa(dp50
g3
S'EQUAL (JI 100%)'
p51
sg5
S'EQUAL (JI 100%)'
p52
sg7
I100
sa(dp53
g3
S"\nDELETED set([u'Lcom/ansca/corona/CoronaLuaErrorHandler$2;->run()V', u'Lcom/naef/jnlua/script/LuaScriptEngine;->loadChunk(Ljava/lang/String; Ljavax/script/ScriptContext;)V', u'Lcom/facebook/model/GraphObject$Factory$GraphObjectListImpl;->put(I Ljava/lang/Object;)V', u'Landroid/view/accessibility/AccessibilityRecord;->setToIndex(I)V', u'Lcom/facebook/widget/WebDialog;->setUpWebView(I)V', u'Landroid/support/v4/app/ListFragment;->setListShown(Z)V', u'Landroid/view/accessibility/AccessibilityManager;->addAccessibilityStateChangeListener(Landroid/view/accessibility/AccessibilityManager$AccessibilityStateChangeListener;)Z', u'Lcom/ansca/corona/storage/ZipFileEntryInputStream;->tryOpen(Ljava/util/zip/ZipFile; Ljava/lang/String;)Lcom/ansca/corona/storage/ZipFileEntryInputStream;', u'Landroid/widget/TextView;->setTextAppearance(Landroid/content/Context; I)V', u'Lcom/ansca/corona/facebook/FacebookFragmentActivity$3;->onDoneButtonClicked(Lcom/facebook/widget/PickerFragment;)V', u'Lcom/ansca/corona/CoronaD\n---\nADDED set([u'Lcom/unity3d/player/b$2;-><init>(Lcom/unity3d/player/b; Landroid/content/Context;)V', u'Lcom/openfeint/api/resource/User$GetFriendsCB;->onFailure(Ljava/lang/String;)V', u'Lcom/tapjoy/TapjoyConnect;->getBannerY()I', u'Lcom/openfeint/internal/ui/IntroFlow$IntroFlowActionHandler;->getEmail(Ljava/util/Map;)V', u'Lorg/xmlpull/v1/XmlPullParserFactory;->setNamespaceAware(Z)V', u'Lcom/prime31/IABPlugin;->stopService()V', u'Lcom/openfeint/internal/vendor/org/codehaus/jackson/impl/Utf8StreamParser;->_decodeCharForError(I)I', u'Lcom/angrymobgames/openfeint/MainActivity$2;->run()V', u'Lcom/openfeint/internal/ui/WebViewCache$ManifestItem;-><init>(Ljava/lang/String; Ljava/lang/String;)V', u'Lcom/openfeint/internal/ui/Settings$SettingsActionHandler;->access$0(Lcom/openfeint/internal/ui/Settings$SettingsActionHandler;)Lcom/openfeint/internal/ui/Settings;', u'Lcom/tapjoy/TJCOffersWebView;->access$0(Lcom/tapjoy/TJCOffersWebView;)Landroid/widget/ProgressBar;', u'Lcom/openfeint/internal/resource/Lo"
p54
sg5
S'CHANGED (JI 5.36%)'
p55
sg7
F5.3600000000000003
sa(dp56
g3
S"\nDELETED set([u'Landroid/widget/TextView;->setTextAppearance(Landroid/content/Context; I)V', u'Landroid/webkit/WebSettings;->setDomStorageEnabled(Z)V', u'Landroid/content/Context;->obtainStyledAttributes(I [I)Landroid/content/res/TypedArray;', u'Landroid/location/Location;->getSpeed()F', u'Landroid/os/Looper;->myLooper()Landroid/os/Looper;', u'Lorg/json/JSONObject;->names()Lorg/json/JSONArray;', u'Landroid/view/View;->postInvalidateOnAnimation()V', u'Ljava/lang/Character;->charValue()C', u'Landroid/webkit/WebSettings;->setGeolocationEnabled(Z)V', u'Landroid/content/pm/PackageManager;->getApplicationLabel(Landroid/content/pm/ApplicationInfo;)Ljava/lang/CharSequence;', u'Landroid/view/ViewGroup;->getId()I', u'Landroid/widget/ImageView;->getTag()Ljava/lang/Object;', u'Landroid/widget/ListView;-><init>(Landroid/content/Context;)V', u'Landroid/widget/EditText;->getWindowToken()Landroid/os/IBinder;', u'Lorg/apache/http/client/methods/HttpPost;->addHeader(Ljava/lang/String; Ljava/lang/String;)V', u'La\n---\nADDED set([u'Landroid/widget/VideoView;->setVideoPath(Ljava/lang/String;)V', u'Ljava/util/Hashtable;->keySet()Ljava/util/Set;', u'Ljava/io/File;-><init>(Ljava/lang/String; Ljava/lang/String;)V', u'Ljava/lang/Character;->isDefined(I)Z', u'Ljava/math/BigInteger;->valueOf(J)Ljava/math/BigInteger;', u'Ljava/util/Map;->putAll(Ljava/util/Map;)V', u'Landroid/graphics/Color;->parseColor(Ljava/lang/String;)I', u'Landroid/widget/Button;->setText(I)V', u'Ljava/math/BigDecimal;-><init>(Ljava/math/BigInteger;)V', u'Ljava/math/BigDecimal;->intValue()I', u'Ljava/math/BigInteger;->toByteArray()[B', u'Landroid/app/Dialog;-><init>(Landroid/content/Context;)V', u'Ljava/io/ByteArrayOutputStream;->size()I', u'Ljava/util/Hashtable;->containsKey(Ljava/lang/Object;)Z', u'Ljava/lang/Character;->isISOControl(C)Z', u'Ljava/lang/String;->valueOf(Z)Ljava/lang/String;', u'Landroid/view/MotionEvent;->getHistorySize()I', u'Ljava/util/regex/Matcher;->end()I', u'Landroid/os/Message;->obtain(Landroid/os/Handler; I Ljava/lang/"
p57
sg5
S'CHANGED (JI 39.78%)'
p58
sg7
F39.780000000000001
sa(dp59
g3
S'\nDELETED set([u\'EVERYONE\', u\'\\\'progress\\\' value of params table was invalid, if provided, must be either "upload" or "download", but was: "%s"\', u\'auth.expireSession failed\', u\'basic_info\', u\'SUPPRESS_SSO\', u\' mTag=\', u\'hatY\', u\'hatX\', u\' did not call through to super.onDestroyView()\', u\'  %s:\\t%s\\n\', u\' index requested: \', u\'com.android.vending.licensing.ILicenseResultListener\', u\'charset=\', u\' token:\', u\' Picture \', u\'com.facebook.platform.extra.EXPIRES_SECONDS_SINCE_EPOCH\', u\'_eventName\', u\'void\', u\'currentActivity\', u"\' not supported", u\'Device does not have a microphone\', u\' mStateSaved=\', u\' mContainerId=#\', u\'renderMode\', u\'Camera not found.\', u\'USER_CANCELED\', u\'Default-Landscape.png\', u\'upload\', u\'com.facebook.katana.platform.TokenRefreshService\', u\'ic_menu_camera\', u\'$1_$2\', u\'me/\', u\'SECTION_HEADER\', u\'street\', u\'User identifier is empty.\', u\'com.facebook.widget.FriendPickerFragment.UserId\', u\'key must not be null\', u\'class %s does not implement Comparable\', u\'requestLocation\', u\'reg\n---\nADDED set([u\'enableLogging: \', u\'if (OF.page) OF.refresh();\', u\'file size mismatch --- deleting image\', u\'  %s: %d\\n\', u\'no imageURL for picture\', u\' at index \', u\'setOverScrollMode\', u\'webui/images/intro.games.hdpi.png\', u\'log batch upload triggered\', u\'android.opengl.GLSurfaceView$GLWrapper\', u\'Not running Unity from an Activity; ignored...\', u\', needed \', u\'DRAWABLE\', u\' showned\', u\' in read-only mode\', u\'os_version:\', u\'updated\', u"\' (for ", u\' is not known!\', u\'Unable to read test config/feed\', u\'com.openfeint.gamebar.internal.TabRightImage\', u\'write number\', u\'open db to WR..\', u\'forceOffline = TRUE\', u\'Failure: \', u\'Presence\', u\'intro/\', u\'prompt_enable_of\', u\'new user or enable of: response code:\', u\'method is null\', u\'Prime31-BR\', u\'Prime31-BS\', u\'com.unity3d.player.UnityPlayerActivity\', u\'webui/images/frame.small.hdpi.png\', u\'settings\', u\'scale_to_fill:\', u\'highlighted_color\', u\'showBannerAd\', u\'of_version:\', u\'boldoblique\', u\'Qlen must >= 3\', u\'9774d56d682e549c\', u\' context (\', u\''
p60
sg5
S'CHANGED (JI 4.96%)'
p61
sg7
F4.96
sa(dp62
g3
S"\nDELETED set(['Lcom/ansca/corona/input/TouchPhase;->fCoronaStringId Ljava/lang/String; [access_flags=private]\\n', 'Lcom/ansca/corona/events/NetworkRequestEvent;->myIsError Z [access_flags=private]\\n', 'Lcom/ansca/corona/CoronaActivity$PopupActivityResultHandler;->MAIL Lcom/ansca/corona/CoronaActivity$PopupActivityResultHandler; [access_flags=public static final]\\n', 'Lcom/facebook/widget/UserSettingsFragment;->userProfilePicID Ljava/lang/String; [access_flags=private]\\n', 'Lcom/ansca/corona/events/MediaEvent$Event;->LoadSound Lcom/ansca/corona/events/MediaEvent$Event; [access_flags=public static enum final]\\n', 'Lcom/ansca/corona/ViewManager$19;->val$id I [access_flags=synthetic final]\\n', 'Landroid/support/v4/app/Fragment;->mContainer Landroid/view/ViewGroup; [access_flags=0x0]\\n', 'Lcom/naef/jnlua/LuaState;->finalizeGuardian Ljava/lang/Object; [access_flags=private]\\n', 'Lcom/ansca/corona/Controller$8;->this$0 Lcom/ansca/corona/Controller; [access_flags=synthetic final]\\n', 'Lcom/ansca/corona\n---\nADDED set(['Lcom/angrymobgames/openfeint/AchievementExplorer$AchievementAdapter;->this$0 Lcom/angrymobgames/openfeint/AchievementExplorer; [access_flags=synthetic final]\\n', 'Lcom/openfeint/internal/vendor/org/codehaus/jackson/util/ByteArrayBuilder;->_pastLen I [access_flags=private]\\n', 'Lcom/unity3d/player/a/k;->d Ljava/lang/String; [access_flags=public]\\n', 'Lcom/unity3d/player/UnityPlayer$12;->b Z [access_flags=private synthetic]\\n', 'Lcom/openfeint/internal/vendor/org/codehaus/jackson/JsonEncoding;->UTF16_BE Lcom/openfeint/internal/vendor/org/codehaus/jackson/JsonEncoding; [access_flags=public static enum final]\\n', 'Lcom/angrymobgames/openfeint/AchievementInvestigator;->update Landroid/widget/Button; [access_flags=0x0]\\n', 'Lcom/openfeint/internal/vendor/org/codehaus/jackson/io/IOContext;->_tokenCBuffer [C [access_flags=protected]\\n', 'Lcom/openfeint/internal/ui/WebViewCache;->appContext Landroid/content/Context; [access_flags=0x0]\\n', 'Lcom/openfeint/api/resource/Achievement$5;->this$"
p63
sg5
S'CHANGED (JI 0.0%)'
p64
sg7
F0
sa.