(lp1
(dp2
S'detailed'
p3
S'EQUAL'
p4
sS'not_detailed'
p5
S'EQUAL'
p6
sS'score'
p7
I100
sa(dp8
g3
S'DIFFERENT: 1.1!=1.2'
p9
sg5
S'CHANGED'
p10
sg7
I0
sa(dp11
g3
S'DIFFERENT: 14!=8'
p12
sg5
S'CHANGED'
p13
sg7
I0
sa(dp14
g3
S'EQUAL'
p15
sg5
S'EQUAL'
p16
sg7
I100
sa(dp17
g3
S'DIFFERENT: 19!=14'
p18
sg5
S'CHANGED'
p19
sg7
I0
sa(dp20
g3
S'DIFFERENT: 19!=14'
p21
sg5
S'CHANGED'
p22
sg7
I0
sa(dp23
g3
S"\nDELETED set(['android.permission.ACCESS_FINE_LOCATION', 'android.permission.BLUETOOTH', 'android.permission.BLUETOOTH_ADMIN', 'android.permission.SET_WALLPAPER_HINTS', 'android.permission.CHANGE_WIFI_STATE', 'android.permission.WRITE_EXTERNAL_STORAGE', 'android.permission.ACCESS_WIFI_STATE'])\n---\nADDED set(['android.permission.INTERNET'])"
p24
sg5
S'CHANGED (JI 0.0%)'
p25
sg7
F0
sa(dp26
g3
S'DIFFERENT: com.mirasmithy.epochlauncher!=com.mistwalkercorp.partywave'
p27
sg5
S'CHANGED'
p28
sg7
I0
sa(dp29
g3
S'DIFFERENT: Epoch Launcher!=Party Wave'
p30
sg5
S'CHANGED'
p31
sg7
I0
sa(dp32
g3
S"\nDELETED set(['com.mirasmithy.epochlauncher..MainActivity', 'com.mirasmithy.epochlauncher..FakeLauncher'])\n---\nADDED set(['com.unity3d.player.VideoPlayer', 'com.unity3d.player.UnityPlayerNativeActivity', 'com.unity3d.player.UnityPlayerProxyActivity', 'com.unity3d.player.UnityPlayerActivity'])"
p33
sg5
S'CHANGED (JI 0.0%)'
p34
sg7
F0
sa(dp35
g3
S"\nDELETED set([u'res/drawable-xhdpi/menu_right_5_content_edit.png', u'res/drawable-xhdpi/menu_right_1_navigation_cancel.png', u'res/drawable-hdpi/menu_right_4_collections_collection.png', u'res/drawable-xhdpi/menu_right_1_navigation_refresh.png', u'assets/fonts/roboto/Roboto-Thin.ttf', u'assets/fonts/roboto/Roboto-ThinItalic.ttf', u'res/drawable-xxhdpi/menu_left_2_action_settings.png', u'assets/fonts/roboto/Roboto-Black.ttf', u'res/drawable-mdpi/menu_left_10_device_access_call.png', u'res/drawable-xhdpi/menu_right_1_navigation_accept.png', u'res/drawable-mdpi/menu_right_1_navigation_accept.png', u'assets/fonts/akashi/Akashi.ttf', u'assets/icon_sources/menu_left_plate.svg', u'res/drawable-mdpi/menu_right_7_location_web_site.png', u'res/drawable-xxhdpi/menu_right_10_device_access_bluetooth.png', u'res/drawable-mdpi/menu_left_6_social_chat.png', u'res/drawable-xhdpi/menu_right_11_alerts_and_states_warning.png', u'res/drawable-xxhdpi/menu_right_10_device_access_call.png', u'assets/fonts/roboto/Robot\n---\nADDED set(['assets/bin/Data/c0c00fcf2a3264842b429a557769d02a', 'assets/bin/Data/99247823050d946d0baa20734e0ad206', 'assets/bin/Data/31a1fd4775136784ab76a7d12dfca53c', 'assets/bin/Data/7e9d4eb6e4fe44459b7f0676d3454854', 'assets/bin/Data/a789b2adac96f43c39b7fb10e98ccc75', 'assets/bin/Data/8f8f14549cf644f37a56204eab63e567', 'assets/bin/Data/30dbdeeeb367a418f9c71785446ba338', 'assets/bin/Data/8e3c37281d70e45988a7268f1f470f1e', 'assets/bin/Data/478452af3e6e34b19afc717fb2ecf7e4', 'assets/bin/Data/59527c63be58e4a4ebd083e807b03419', 'assets/bin/Data/2c9b402421b444d388763c78834c820d', 'assets/bin/Data/795d6abc925da42fdac2417c87b4f9ea', 'assets/bin/Data/1ad6d1dc5e52143a7ac5ed1a80042f70', 'assets/bin/Data/69d07002de9d0464f9694556b5963d79', 'assets/bin/Data/3667b6a5987a6437387ea50df5efb56c', 'assets/bin/Data/d66cd5eb1b15a40848f3f2934570ef7d', 'assets/bin/Data/14a2e874260364b5eaec3b391577796a', 'assets/bin/Data/b6899bf7fb45b4071b1b9a3d1419a958', 'assets/bin/Data/Managed/UnityEngine.dll', 'assets/bin/Data"
p36
sg5
S'CHANGED (JI 0.45%)'
p37
sg7
F0.45000000000000001
sa(dp38
g3
S'EQUAL (JI 100%)'
p39
sg5
S'EQUAL (JI 100%)'
p40
sg7
I100
sa(dp41
g3
S'EQUAL (JI 100%)'
p42
sg5
S'EQUAL (JI 100%)'
p43
sg7
I100
sa(dp44
g3
S"\nDELETED set([u'Landroid/support/v4/widget/SlidingPaneLayout$LayoutParams;', u'Landroid/support/v4/widget/SearchViewCompatHoneycomb$1;', u'LLogCatBroadcaster;', u'Ljava/lang/ref/WeakReference;', u'Ljava/lang/Process;', u'Lcom/mirasmithy/epochlauncher/GetBrowsers;', u'Landroid/support/v4/text/TextDirectionHeuristicsCompat$1;', u'Landroid/support/v4/view/MenuItemCompat$IcsMenuVersionImpl;', u'Landroid/support/v4/os/EnvironmentCompatKitKat;', u'Landroid/support/v4/view/MotionEventCompat$MotionEventVersionImpl;', u'Landroid/support/v4/view/ViewGroupCompatHC;', u'Landroid/support/v4/content/IntentCompat$IntentCompatImplHC;', u'Landroid/support/v4/app/FragmentActivity$1;', u'Landroid/support/v4/app/ShareCompat$ShareCompatImplBase;', u'Ljava/util/concurrent/FutureTask;', u'Landroid/support/v4/view/ViewGroupCompat$ViewGroupCompatJellybeanMR2Impl;', u'Landroid/support/v4/content/WakefulBroadcastReceiver;', u'Landroid/graphics/pdf/PdfDocument$PageInfo;', u'Landroid/support/v4/view/KeyEventCompatEclair;',\n---\nADDED set([u'Ljava/io/FileNotFoundException;', u'Ljava/net/URI;', u'Lcom/unity3d/player/c;', u'Landroid/graphics/drawable/ColorDrawable;', u'Landroid/view/InputDevice;', u'Lcom/unity3d/player/UnityGL;', u'Ljava/net/URLConnection;', u'Lcom/unity3d/player/UnityPlayer$5;', u'Landroid/text/method/TextKeyListener;', u'Lcom/unity3d/player/t;', u'Landroid/os/IBinder;', u'Ljavax/microedition/khronos/egl/EGL10;', u'Lcom/unity3d/player/UnityPlayer;', u'Lcom/unity3d/player/a/g;', u'Landroid/view/SurfaceHolder;', u'Landroid/view/SurfaceView;', u'Lcom/unity3d/player/UnityJavaRunnable;', u'Lcom/unity3d/player/a/e;', u'Lcom/unity3d/player/UnityPlayer$17;', u'Ljava/lang/Double;', u'Landroid/text/TextUtils$SimpleStringSplitter;', u'Lcom/unity3d/player/p;', u'Lcom/unity3d/player/e;', u'Lcom/unity3d/player/b;', u'Lcom/unity3d/player/UnityPlayerActivity;', u'Lcom/unity3d/player/a/l;', u'Ljava/net/MalformedURLException;', u'Lcom/unity3d/player/b/b;', u'Landroid/media/AudioTrack;', u'Lcom/unity3d/player/UnityPlay"
p45
sg5
S'CHANGED (JI 8.03%)'
p46
sg7
F8.0299999999999994
sa(dp47
g3
S"\nDELETED set([u'Landroid/support/v4/accessibilityservice/AccessibilityServiceInfoCompat;->getSettingsActivityName(Landroid/accessibilityservice/AccessibilityServiceInfo;)Ljava/lang/String;', u'Landroid/support/v4/util/SimpleArrayMap;->toString()Ljava/lang/String;', u'Landroid/support/v4/view/MarginLayoutParamsCompatJellybeanMr1;->isMarginRelative(Landroid/view/ViewGroup$MarginLayoutParams;)Z', u'Landroid/support/v4/widget/AutoScrollHelper;->setRelativeEdges(F F)Landroid/support/v4/widget/AutoScrollHelper;', u'Landroid/support/v4/widget/ScrollerCompat$ScrollerCompatImplGingerbread;->startScroll(Ljava/lang/Object; I I I I I)V', u'Landroid/support/v4/widget/ContentLoadingProgressBar;->access$300(Landroid/support/v4/widget/ContentLoadingProgressBar;)Z', u'Landroid/support/v4/app/ListFragment;->setListShown(Z)V', u'Landroid/support/v4/view/accessibility/AccessibilityNodeInfoCompat$AccessibilityNodeInfoImpl;->setSelected(Ljava/lang/Object; Z)V', u'Landroid/support/v4/content/Loader;->startLoading()V'\n---\nADDED set([u'Lcom/unity3d/player/a/e$a;->b(Lcom/unity3d/player/a/e$a;)V', u'Lcom/unity3d/player/UnityPlayer;->nativeInitWWW(Ljava/lang/Class;)V', u'Lcom/unity3d/player/UnityPlayer$4;-><init>(Lcom/unity3d/player/UnityPlayer; I F F I J I)V', u'Lcom/unity3d/player/a/e;->a(Ljava/lang/String;)Ljava/security/PublicKey;', u'Lcom/unity3d/player/e$1;->run()V', u'Lcom/unity3d/player/UnityPlayer;->a(Ljava/lang/Runnable;)V', u'Lcom/unity3d/player/q;->run()V', u'Lcom/unity3d/player/VideoPlayer;->finish()V', u'Lcom/unity3d/player/z$b;-><init>()V', u'Lcom/unity3d/player/WWW;->headerCallback(Ljava/util/Map;)Z', u'Lcom/unity3d/player/UnityPlayer;->m(Lcom/unity3d/player/UnityPlayer;)Landroid/widget/ProgressBar;', u'Lcom/unity3d/player/UnityPlayer;->nativeRecreateGfxState()V', u'Lcom/unity3d/player/UnityPlayer$17;->onGenericMotionEvent(Landroid/view/MotionEvent;)Z', u'Lcom/unity3d/player/UnityPlayer;->getCPUType()Ljava/lang/String;', u'Lcom/unity3d/player/UnityPlayer$13;->run()V', u'Lorg/fmod/FMODAudioDevice;-"
p48
sg5
S'CHANGED (JI 0.0%)'
p49
sg7
F0
sa(dp50
g3
S'EQUAL (JI 100%)'
p51
sg5
S'EQUAL (JI 100%)'
p52
sg7
I100
sa(dp53
g3
S"\nDELETED set([u'Landroid/support/v4/util/SimpleArrayMap;->toString()Ljava/lang/String;', u'Landroid/support/v4/view/MarginLayoutParamsCompatJellybeanMr1;->isMarginRelative(Landroid/view/ViewGroup$MarginLayoutParams;)Z', u'Landroid/widget/TextView;->setTextAppearance(Landroid/content/Context; I)V', u'Landroid/support/v4/widget/AutoScrollHelper;->setRelativeEdges(F F)Landroid/support/v4/widget/AutoScrollHelper;', u'Landroid/util/SparseArray;->remove(I)V', u'Landroid/view/accessibility/AccessibilityRecord;->setToIndex(I)V', u'Landroid/widget/RelativeLayout;->getChildCount()I', u'Landroid/support/v4/app/ListFragment;->setListShown(Z)V', u'Landroid/support/v4/widget/AutoScrollHelper$ClampedScroller;->setRampUpDuration(I)V', u'Landroid/support/v4/app/FragmentTransaction;->commit()I', u'Landroid/view/accessibility/AccessibilityManager;->addAccessibilityStateChangeListener(Landroid/view/accessibility/AccessibilityManager$AccessibilityStateChangeListener;)Z', u'Landroid/content/Intent;->setAction(Ljava/\n---\nADDED set([u'Lorg/xmlpull/v1/XmlPullParserFactory;->newInstance()Lorg/xmlpull/v1/XmlPullParserFactory;', u'Lorg/xmlpull/v1/XmlPullParserFactory;->setNamespaceAware(Z)V', u'Ljavax/crypto/SecretKey;->getEncoded()[B', u'Lcom/unity3d/player/x;->getWindow()Landroid/view/Window;', u'Landroid/hardware/Camera;->setPreviewCallbackWithBuffer(Landroid/hardware/Camera$PreviewCallback;)V', u'Landroid/media/MediaPlayer;->setAudioStreamType(I)V', u'Lcom/unity3d/player/q;->run()V', u'Lcom/unity3d/player/z$b;-><init>()V', u'Lcom/unity3d/player/UnityPlayer;->m(Lcom/unity3d/player/UnityPlayer;)Landroid/widget/ProgressBar;', u'Lcom/unity3d/player/WWW;->start()V', u'Lorg/fmod/FMODAudioDevice;->fmodGetInfo(I)I', u'Lcom/unity3d/player/UnityPlayerNativeActivity;->onDestroy()V', u'Landroid/widget/FrameLayout;->requestLayout()V', u'Landroid/media/AudioTrack;->stop()V', u'Landroid/hardware/Camera$CameraInfo;-><init>()V', u'Lcom/unity3d/player/a;->a()I', u'Lcom/unity3d/player/UnityPlayer$18;->onReceive(Landroid/content"
p54
sg5
S'CHANGED (JI 2.59%)'
p55
sg7
F2.5899999999999999
sa(dp56
g3
S"\nDELETED set([u'Landroid/os/Bundle;->keySet()Ljava/util/Set;', u'Landroid/widget/RelativeLayout;->getChildCount()I', u'Landroid/content/Context;->getApplicationContext()Landroid/content/Context;', u'Landroid/content/Context;->obtainStyledAttributes(I [I)Landroid/content/res/TypedArray;', u'Landroid/util/Log;->e(Ljava/lang/String; Ljava/lang/String; Ljava/lang/Throwable;)I', u'Landroid/content/Intent;->setAction(Ljava/lang/String;)Landroid/content/Intent;', u'Landroid/app/Dialog;->getContext()Landroid/content/Context;', u'Landroid/os/Looper;->myLooper()Landroid/os/Looper;', u'Landroid/app/Activity;->onPanelClosed(I Landroid/view/Menu;)V', u'Ljava/util/Map;->remove(Ljava/lang/Object;)Ljava/lang/Object;', u'Landroid/view/View;->postInvalidateOnAnimation()V', u'Ljava/io/IOException;-><init>(Ljava/lang/String;)V', u'Landroid/view/Window;->getAttributes()Landroid/view/WindowManager$LayoutParams;', u'Landroid/view/View;->getAlpha()F', u'Ljava/util/HashMap;->put(Ljava/lang/Object; Ljava/lang/Object;)Lj\n---\nADDED set([u'Ljava/util/Set;->add(Ljava/lang/Object;)Z', u'Landroid/view/Window;->setGravity(I)V', u'Landroid/location/LocationManager;->removeUpdates(Landroid/location/LocationListener;)V', u'Landroid/widget/EditText;->setClickable(Z)V', u'Ljava/util/Arrays;->sort([I)V', u'Ljava/lang/Class;->desiredAssertionStatus()Z', u'Landroid/os/Bundle;->putFloat(Ljava/lang/String; F)V', u'Landroid/net/Uri;->fromFile(Ljava/io/File;)Landroid/net/Uri;', u'Landroid/widget/FrameLayout;->requestLayout()V', u'Landroid/view/View;->getWindowVisibleDisplayFrame(Landroid/graphics/Rect;)V', u'Landroid/location/LocationManager;->getProviders(Z)Ljava/util/List;', u'Ljava/lang/Boolean;->parseBoolean(Ljava/lang/String;)Z', u'Landroid/view/KeyEvent;->getScanCode()I', u'Ljava/lang/String;-><init>([B)V', u'Landroid/widget/FrameLayout;->onKeyPreIme(I Landroid/view/KeyEvent;)Z', u'Ljava/util/LinkedHashMap;-><init>()V', u'Ljava/lang/Class;->getConstructors()[Ljava/lang/reflect/Constructor;', u'Landroid/os/Parcel;->writeInte"
p57
sg5
S'CHANGED (JI 20.47%)'
p58
sg7
F20.469999999999999
sa(dp59
g3
S'\nDELETED set([u\'Light Theme\', u\'android.intent.category.HOME\', u\'themes\', u\'; text: \', u\'menuRightPlateColor\', u\'getScript\', u\' did not call through to super.onViewStateRestored()\', u\' mTag=\', u\'failWrite: Got exception:\', u\' at index \', u\'content\', u\' did not call through to super.onDestroyView()\', u\'Finished Retaining in \', u\'hide: \', u\'ACTION_CLEAR_FOCUS\', u\'android.intent.extra.KEY_EVENT\', u\', tag \', u\'Epoch Launcher\', u\'; focused: \', u\'restoreAllState: back stack #\', u\' #\', u\'  \', u\'Could not retrieve icon for calling activity\', u\'setChildrenDrawingOrderEnabled\', u\'ACTION_PREVIOUS_HTML_ELEMENT\', u\' (\', u\'android.settings.LOCATION_SOURCE_SETTINGS\', u\' mStateSaved=\', u\'Could not find menu item with id \', u\'Called doRetain when not started: \', u\' mContainerId=#\', u\'android.support.PARENT_ACTIVITY\', u\'Bad ComponentName while traversing activity parent metadata\', u\'finishWrite: Got exception:\', u\'Pre-Eclair does not support multiple pointers\', u\'android.intent.category.LAUNCHER\', u\'menuRightSau\n---\nADDED set([u\'Failure to initialize!\', u\'EGL_TRANSPARENT_BLUE_VALUE\', u\'com.android.vending.licensing.AESObfuscator-1|\', u\'/cache\', u\'setScreenSize: Unable to retrieve surface holder\', u\'Old Android OS detected!\', u\'neon\', u\'AudioRecord failed to initialize (status \', u\'Your hardware does not support this application, sorry!\', u\'input_method\', u\'Y29tLmFuZHJvaWQudmVuZGluZy5DSEVDS19MSUNFTlNF\', u\'Before eglCreateContext\', u\'Unknown error \', u\'integer\', u\'android.permission.VIBRATE not available?\', u\'  %s: %d\\n\', u\'android_id\', u\'EGL_COVERAGE_BUFFERS_NV\', u\'EGL_BLUE_SIZE\', u\'com.android.vending.licensing.ServerManagedPolicy\', u\'EGL_ALPHA_MASK_SIZE\', u\'EGL_NATIVE_VISUAL_ID\', u\'jar\', u\'android.opengl.GLSurfaceView$GLWrapper\', u\'Not running Unity from an Activity; ignored...\', u\'0\', u\'blaze\', u\'FMOD\', u\'/lib\', u\'EGL_STENCIL_SIZE\', u\' AAx\', u"This application requires at least Android OS version 2.2 on Samsung devices. Your device seems to be running an older OS version.\\nPlease contact your carrier '
p60
sg5
S'CHANGED (JI 1.28%)'
p61
sg7
F1.28
sa(dp62
g3
S"\nDELETED set(['Landroid/support/v4/text/BidiFormatter;->RLM_STRING Ljava/lang/String; [access_flags=private static final]\\n', 'Landroid/support/v4/widget/DrawerLayout$LayoutParams;->onScreen F [access_flags=0x0]\\n', 'Lcom/mirasmithy/epochlauncher/MainActivity;->getBrowsers Ljava/lang/Thread; [access_flags=0x0]\\n', 'Landroid/support/v4/widget/ContentLoadingProgressBar;->mStartTime J [access_flags=private]\\n', 'Landroid/support/v4/view/ViewPager;->mMarginDrawable Landroid/graphics/drawable/Drawable; [access_flags=private]\\n', 'Lcom/mirasmithy/epochlauncher/MainActivity;->pointerDown Landroid/widget/ImageView; [access_flags=0x0]\\n', 'Landroid/support/v4/app/Fragment$SavedState;->CREATOR Landroid/os/Parcelable$Creator; [access_flags=public static final]\\n', 'Lcom/mirasmithy/epochlauncher/MainActivity;->getPrefs Ljava/lang/Thread; [access_flags=0x0]\\n', 'Landroid/support/v4/view/ViewPager;->mScroller Landroid/widget/Scroller; [access_flags=private]\\n', 'Landroid/support/v4/view/ViewPager$SavedState;\n---\nADDED set(['Lcom/unity3d/player/UnityPlayer$16;->a I [access_flags=private synthetic]\\n', 'Lcom/unity3d/player/UnityPlayer;->O Ljava/lang/Runnable; [access_flags=private]\\n', 'Lcom/unity3d/player/UnityPlayer;->I Z [access_flags=private]\\n', 'Lcom/unity3d/player/a$2;->a Lcom/unity3d/player/a$a; [access_flags=private synthetic]\\n', 'Lcom/unity3d/player/a/k;->d Ljava/lang/String; [access_flags=public]\\n', 'Lcom/unity3d/player/c;->a Landroid/content/ContextWrapper; [access_flags=protected final]\\n', 'Lcom/unity3d/player/a/c$a$a;->a Landroid/os/IBinder; [access_flags=private]\\n', 'Lcom/unity3d/player/p;->I [F [access_flags=private]\\n', 'Lcom/unity3d/player/p;->h F [access_flags=private]\\n', 'Lcom/unity3d/player/p;->v F [access_flags=private]\\n', 'Lcom/unity3d/player/a/g;->e Ljava/lang/String; [access_flags=private final]\\n', 'Lcom/unity3d/player/UnityPlayerNativeActivity;->mUnityPlayer Lcom/unity3d/player/UnityPlayer; [access_flags=protected]\\n', 'Lcom/unity3d/player/z$a;->g [I [access_flags=priv"
p63
sg5
S'CHANGED (JI 0.0%)'
p64
sg7
F0
sa.