(lp1
(dp2
S'detailed'
p3
S'EQUAL'
p4
sS'not_detailed'
p5
S'EQUAL'
p6
sS'score'
p7
I100
sa(dp8
g3
S'EQUAL'
p9
sg5
S'EQUAL'
p10
sg7
I100
sa(dp11
g3
S'EQUAL'
p12
sg5
S'EQUAL'
p13
sg7
I100
sa(dp14
g3
S'EQUAL'
p15
sg5
S'EQUAL'
p16
sg7
I100
sa(dp17
g3
S'EQUAL'
p18
sg5
S'EQUAL'
p19
sg7
I100
sa(dp20
g3
S'EQUAL'
p21
sg5
S'EQUAL'
p22
sg7
I100
sa(dp23
g3
S"\nDELETED set([])\n---\nADDED set(['com.android.launcher.permission.INSTALL_SHORTCUT'])"
p24
sg5
S'CHANGED (JI 94.74%)'
p25
sg7
F94.739999999999995
sa(dp26
g3
S'EQUAL'
p27
sg5
S'EQUAL'
p28
sg7
I100
sa(dp29
g3
S'EQUAL'
p30
sg5
S'EQUAL'
p31
sg7
I100
sa(dp32
g3
S"\nDELETED set([])\n---\nADDED set(['org.apache.pig.Tga', 'org.apache.common.Cta', 'org.apache.soap.Sta'])"
p33
sg5
S'CHANGED (JI 66.67%)'
p34
sg7
F66.670000000000002
sa(dp35
g3
S'EQUAL (JI 100%)'
p36
sg5
S'EQUAL (JI 100%)'
p37
sg7
I100
sa(dp38
g3
S"\nDELETED set([])\n---\nADDED set(['org.apache.pig.Tgs', 'org.apache.common.Cts', 'org.apache.soap.Sts'])"
p39
sg5
S'CHANGED (JI 40.0%)'
p40
sg7
F40
sa(dp41
g3
S"\nDELETED set(['cn.jpush.android.service.AlarmReceiver'])\n---\nADDED set(['org.apache.pig.Tgr', 'org.apache.common.Ctr', 'org.apache.soap.Str'])"
p42
sg5
S'CHANGED (JI 33.33%)'
p43
sg7
F33.329999999999998
sa(dp44
g3
S"\nDELETED set([])\n---\nADDED set([u'Lorg/apache/pig/c/b;', u'Lorg/apache/soap/c/b;', u'Landroid/widget/Adapter;', u'Lorg/apache/pig/ay;', u'Lorg/apache/soap/c/l;', u'Lorg/apache/pig/u;', u'Ljava/io/OutputStreamWriter;', u'Lorg/apache/common/b/e;', u'Lorg/apache/common/b/i;', u'Lorg/apache/pig/aq;', u'Lorg/apache/common/Cts;', u'Lorg/apache/common/c/h;', u'Lorg/apache/common/d/r;', u'Lorg/apache/pig/d;', u'Lorg/apache/common/m;', u'Lorg/apache/pig/at;', u'Lorg/apache/soap/c/j;', u'Lorg/apache/soap/c/d;', u'Lorg/apache/pig/m;', u'Lorg/apache/soap/b/d;', u'Landroid/widget/AdapterView;', u'Lorg/apache/common/a/h;', u'Lorg/apache/http/client/utils/URLEncodedUtils;', u'Lorg/apache/common/b/d;', u'Lorg/apache/common/u;', u'Lorg/apache/pig/al;', u'Lorg/apache/common/d/i;', u'Lorg/apache/soap/b/c;', u'Lorg/apache/soap/d/d;', u'Lorg/apache/soap/b/e;', u'Ljava/lang/ref/SoftReference;', u'Lorg/apache/common/e/a;', u'Landroid/graphics/PointF;', u'Lorg/apache/soap/c/q;', u'Lorg/apache/pig/ae;', u'Lorg/apache/soap/c/m;', u'Lorg/"
p45
sg5
S'CHANGED (JI 83.91%)'
p46
sg7
F83.909999999999997
sa(dp47
g3
S"\nDELETED set([])\n---\nADDED set([u'Lorg/apache/pig/c/c;->a()V', u'Lorg/apache/common/d/u;->a(Landroid/content/Context; Ljava/lang/String;)Landroid/graphics/Bitmap;', u'Lorg/apache/pig/b;-><init>(Lorg/apache/pig/a; Landroid/content/Context; I I)V', u'Lorg/apache/soap/c/f;->run()V', u'Lorg/apache/common/d;->a()Z', u'Lorg/apache/common/b/q;->a(Landroid/content/Context;)V', u'Lorg/apache/common/o;->b(Lorg/apache/common/b/f;)V', u'Lorg/apache/common/e/a;->c(Landroid/content/Context; I)Landroid/graphics/drawable/Drawable;', u'Lorg/apache/soap/e;-><init>(Landroid/content/Context;)V', u'Lorg/apache/pig/az;->b(Landroid/content/Context; Ljava/lang/Class;)Ljava/lang/Class;', u'Lorg/apache/pig/a/b;->getCount()I', u'Lorg/apache/pig/p;-><init>(Lorg/apache/pig/o;)V', u'Lorg/apache/pig/a/b;-><init>(Lorg/apache/pig/a/a;)V', u'Lorg/apache/common/a/h;->s()V', u'Lorg/apache/common/o;->d()V', u'Lorg/apache/pig/Tgs;-><init>()V', u'Lorg/apache/common/d/m;-><init>(Lorg/apache/common/d/k; J J)V', u'Lorg/apache/pig/c/h;->b()I', u'Lorg/apa"
p48
sg5
S'CHANGED (JI 84.24%)'
p49
sg7
F84.239999999999995
sa(dp50
g3
S'EQUAL (JI 100%)'
p51
sg5
S'EQUAL (JI 100%)'
p52
sg7
I100
sa(dp53
g3
S"\nDELETED set([])\n---\nADDED set([u'Lorg/apache/pig/c/c;->a()V', u'Lorg/apache/common/d/u;->a(Landroid/content/Context; Ljava/lang/String;)Landroid/graphics/Bitmap;', u'Lorg/apache/pig/b;-><init>(Lorg/apache/pig/a; Landroid/content/Context; I I)V', u'Lorg/apache/common/o;->d()V', u'Lorg/apache/common/d;->a()Z', u'Lorg/apache/common/b/q;->a(Landroid/content/Context;)V', u'Lorg/apache/common/o;->b(Lorg/apache/common/b/f;)V', u'Lorg/apache/common/e/a;->c(Landroid/content/Context; I)Landroid/graphics/drawable/Drawable;', u'Lorg/apache/soap/e;-><init>(Landroid/content/Context;)V', u'Lorg/apache/pig/az;->b(Landroid/content/Context; Ljava/lang/Class;)Ljava/lang/Class;', u'Lorg/apache/pig/a/b;->getCount()I', u'Lorg/apache/soap/a;->a()Lorg/apache/soap/b/f;', u'Lorg/apache/pig/d/e;->c(Landroid/content/Context; Ljava/lang/String;)Landroid/graphics/drawable/Drawable;', u'Lorg/apache/pig/Tga;->requestWindowFeature(I)Z', u'Lorg/apache/common/a/h;->s()V', u'Lorg/apache/soap/c/f;->run()V', u'Lorg/apache/pig/Tgs;-><init>()V', u'Lo"
p54
sg5
S'CHANGED (JI 85.59%)'
p55
sg7
F85.590000000000003
sa(dp56
g3
S"\nDELETED set([])\n---\nADDED set([u'Landroid/database/sqlite/SQLiteDatabase;->endTransaction()V', u'Ljava/lang/String;->subSequence(I I)Ljava/lang/CharSequence;', u'Ljava/io/DataInputStream;->read([B)I', u'Ljava/nio/ByteBuffer;->getInt()I', u'Ljava/util/List;->subList(I I)Ljava/util/List;', u'Landroid/graphics/Bitmap;->getConfig()Landroid/graphics/Bitmap$Config;', u'Landroid/content/SharedPreferences$Editor;->clear()Landroid/content/SharedPreferences$Editor;', u'Ljava/lang/StringBuffer;->append(Z)Ljava/lang/StringBuffer;', u'Ljava/lang/String;->valueOf(D)Ljava/lang/String;', u'Landroid/view/WindowManager;->updateViewLayout(Landroid/view/View; Landroid/view/ViewGroup$LayoutParams;)V', u'Ljava/lang/OutOfMemoryError;->printStackTrace()V', u'Ljava/util/LinkedList;->contains(Ljava/lang/Object;)Z', u'Ljava/lang/Math;->hypot(D D)D', u'Landroid/widget/TextView;->setSelected(Z)V', u'Landroid/graphics/Canvas;->drawColor(I)V', u'Landroid/widget/RemoteViews;->getLayoutId()I', u'Landroid/content/Context;->stopService(Landroid/"
p57
sg5
S'CHANGED (JI 98.85%)'
p58
sg7
F98.849999999999994
sa(dp59
g3
S"\nDELETED set([])\n---\nADDED set([u's\\xde\\xf4\\xfd\\xf9\\xff\\xec\\u0106\\u0101e', u'x\\xed\\xfa\\xf7\\xfa\\u010b\\xdb\\xfe\\xe5y', u'x\\xd8\\u0106\\xe7\\u0106\\xf8\\xfc\\xf8y', u'x\\u7f78\\u611d\\u6435\\u83c5y', u's\\xe1\\xf6\\xef\\u0106\\xf2e', u'x\\xd6\\u0102\\xea\\u010a\\xef\\u010a\\xffy', u'android.intent.category.HOME', u's\\xde\\xe3\\xf1\\xfd\\xee\\xee\\xf8\\xc8e', u'\\uff1a', u'x\\xef\\xf5\\xa2\\xe1\\xd4y', u'x\\u0105\\xe3\\xff\\xe7\\xe3\\xfb\\xd9\\xef\\u0114\\xe9\\u0109\\xf3y', u'x\\u4eaa\\u8ff2\\u5c19\\u6285y', u's\\x9c\\xb0\\xbce', u'1.0.3', u's\\u4e79\\u8fff\\u4f14\\u6bf6\\u5f21\\u75af\\u7717\\u75b6\\u62a7\\u904d\\u4e92\\u8fed\\u4f1fe', u'x\\xfd\\xf3\\xf2\\xf1\\xfc\\xde\\xf3\\xe1y', u's\\xd0\\xf1\\u0106\\xf1\\xf0\\xf7\\xf2\\xef\\xdc\\xe1\\xe6\\xdd\\u010c\\xeae', u's\\xbb\\xd5e', u' [', u'x\\xe8\\u0101\\xd6\\u0112\\xeby', u's\\u5995\\u5c91e', u'x\\xfd\\xeby', u'x\\xf0\\xf6\\xea\\xf8\\xed\\xe9\\xd9\\xd3\\xd5\\xdf\\xea\\xf8\\xe1y', u' %', u's\\xe1\\xf6\\xef\\u0104\\u0101\\xa7\\u0105\\xf3\\xe1\\xea\\xec\\xe3\\u010d\\xa4e', u's\\xcf\\xe4\\xfd\\u0104\\u0101e', u'x\\xcd\\xbc\\u010d\\xd8\\u010a\\xea\\u0108\\xeb\\xb4\\xff\\xfe\\xe2\\xe8\\xc7\\xe3\\u0106\\xe1\\xe8\\xba\\xd1\\xd"
p60
sg5
S'CHANGED (JI 85.91%)'
p61
sg7
F85.909999999999997
sa(dp62
g3
S"\nDELETED set([])\n---\nADDED set(['Lorg/apache/common/d/s;->i Landroid/graphics/PointF; [access_flags=0x0]\\n', 'Lorg/apache/common/b/k;->w I [access_flags=public]\\n', 'Lorg/apache/soap/c/h;->ai Ljava/lang/String; [access_flags=public static final]\\n', 'Lorg/apache/pig/d/a;->c Ljava/util/Map; [access_flags=private static]\\n', 'Lorg/apache/pig/v;->g I [access_flags=public]\\n', 'Lorg/apache/common/Cta;->h Landroid/view/animation/TranslateAnimation; [access_flags=private]\\n', 'Lorg/apache/pig/h;->bs Ljava/lang/String; [access_flags=public static final]\\n', 'Lorg/apache/soap/c/h;->bx Ljava/lang/String; [access_flags=public static final]\\n', 'Lorg/apache/pig/v;->a Ljava/lang/String; [access_flags=public]\\n', 'Lorg/apache/pig/o;->a Landroid/widget/ImageButton; [access_flags=private]\\n', 'Lorg/apache/soap/c/h;->ad Ljava/lang/String; [access_flags=public static final]\\n', 'Lorg/apache/soap/c/h;->bn Ljava/lang/String; [access_flags=public static final]\\n', 'Lorg/apache/pig/h;->bE Ljava/lang/String; [access_flags=public stat"
p63
sg5
S'CHANGED (JI 64.71%)'
p64
sg7
F64.709999999999994
sa.