(lp1
(dp2
S'detailed'
p3
S'EQUAL'
p4
sS'not_detailed'
p5
S'EQUAL'
p6
sS'score'
p7
I100
sa(dp8
g3
S'EQUAL'
p9
sg5
S'EQUAL'
p10
sg7
I100
sa(dp11
g3
S'EQUAL'
p12
sg5
S'EQUAL'
p13
sg7
I100
sa(dp14
g3
S'EQUAL'
p15
sg5
S'EQUAL'
p16
sg7
I100
sa(dp17
g3
S'EQUAL'
p18
sg5
S'EQUAL'
p19
sg7
I100
sa(dp20
g3
S'EQUAL'
p21
sg5
S'EQUAL'
p22
sg7
I100
sa(dp23
g3
S'EQUAL (JI 100%)'
p24
sg5
S'EQUAL (JI 100%)'
p25
sg7
I100
sa(dp26
g3
S'EQUAL'
p27
sg5
S'EQUAL'
p28
sg7
I100
sa(dp29
g3
S'EQUAL'
p30
sg5
S'EQUAL'
p31
sg7
I100
sa(dp32
g3
S'EQUAL (JI 100%)'
p33
sg5
S'EQUAL (JI 100%)'
p34
sg7
I100
sa(dp35
g3
S"\nDELETED set([u'res/drawable-hdpi/baidu_pcs.png', u'res/drawable-hdpi/anniversaries.png', u'res/layout/anniversaries.xml', u'res/drawable-hdpi/qq_friend.png', u'res/drawable-hdpi/qq_weibo.png', u'res/drawable-hdpi/sms.png', u'res/layout/anniversaries_item.xml'])\n---\nADDED set([u'res/drawable/aqi3.xml', u'res/drawable/aqi2.xml', u'res/drawable/aqi4.xml', u'res/layout-zh/search_rec_city_item.xml', u'res/drawable/aqi1.xml', u'res/drawable/aqi5.xml', u'res/drawable/aqi0.xml'])"
p36
sg5
S'CHANGED (JI 98.68%)'
p37
sg7
F98.680000000000007
sa(dp38
g3
S'EQUAL (JI 100%)'
p39
sg5
S'EQUAL (JI 100%)'
p40
sg7
I100
sa(dp41
g3
S'EQUAL (JI 100%)'
p42
sg5
S'EQUAL (JI 100%)'
p43
sg7
I100
sa(dp44
g3
S"\nDELETED set([u'Lcom/hf/share/ShareAnniversary$3;', u'Lcom/hf/share/ShareAnniversary$2;', u'Landroid/widget/SimpleAdapter;', u'Lcom/hf/share/BaiDuShare$2;', u'Lcom/hf/share/ShareUtils;', u'Lcom/hf/share/SMSShare;', u'Lcom/hf/view/DialogShow$20;', u'Lcom/hf/share/Share;', u'Lcom/hf/share/LocaleSave;', u'Lcom/hf/share/BaiDuShare$2$2;', u'Lcom/hf/share/BaiDuShare;', u'Lcom/hf/share/ShareManager$2;', u'Lcom/hf/share/BaiDuShare$1;', u'Lcom/hf/view/DialogShow$19;', u'Lcom/hf/share/ShareAnniversary$1;', u'Lcom/hf/share/BaiDuShare$2$1;', u'Lcom/hf/share/ShareAnniversary;'])\n---\nADDED set([])"
p45
sg5
S'CHANGED (JI 99.38%)'
p46
sg7
F99.379999999999995
sa(dp47
g3
S"\nDELETED set([u'Lcom/hf/share/BaiDuShare;->uploadFile()V', u'Lcom/hf/share/ShareManager;->saveBitmapTemp(Landroid/content/Context; Landroid/view/View;)Ljava/lang/String;', u'Lcom/hf/share/ShareManager;->shareAnniversary(Landroid/content/Context; Lcom/hf/share/Share; Landroid/view/View; Lcom/hf/model/CityModel;)V', u'Lcom/hf/share/ShareManager;->showAnniversaryShareDialog(Landroid/content/Context; Landroid/view/View; Lcom/hf/model/CityModel;)V', u'Lcom/hf/share/LocaleSave;->saveViewToSdcard(Landroid/content/Context; Landroid/view/View;)Ljava/lang/String;', u'Lcom/hf/share/ShareManager$2;-><init>(Lcom/hf/share/ShareManager; Lcom/hf/activity/RootActivity; Ljava/lang/String;)V', u'Lcom/hf/share/ShareManager;->access$0(Lcom/hf/share/ShareManager; Landroid/content/Context; Lcom/hf/share/Share; Landroid/view/View; Lcom/hf/model/CityModel;)V', u'Lcom/hf/share/ShareAnniversary$1;->afterTextChanged(Landroid/text/Editable;)V', u'Lcom/hf/share/BaiDuShare$2$2;->run()V', u'Lcom/hf/share/ShareAnniversary$2;->\n---\nADDED set([u'Lcom/hf/share/ShareManager$1;->onSuccess()V', u'Lcom/hf/view/SKView;->setFeelTempterture(Ljava/lang/String;)V', u'Lcom/hf/view/DialogShow$17;-><init>(Lcom/hf/UI/HFDialog;)V', u'Lcom/hf/share/ShareManager$1;->onFailure(I Ljava/lang/String;)V', u'Lcom/hf/share/ShareManager$1;-><init>(Lcom/hf/share/ShareManager; Lcom/hf/activity/RootActivity; Ljava/lang/String;)V', u'Lcom/hf/view/SKView;->setAirQuality(Ljava/lang/String;)V'])"
p48
sg5
S'CHANGED (JI 99.5%)'
p49
sg7
F99.5
sa(dp50
g3
S"\nDELETED set([u'Lcom/hf/share/ShareManager;->saveBitmapTemp(Landroid/content/Context; Landroid/view/View;)Ljava/lang/String;', u'Lcom/hf/share/ShareManager;->showAnniversaryShareDialog(Landroid/content/Context; Landroid/view/View; Lcom/hf/model/CityModel;)V', u'Lcom/hf/share/ShareManager;->access$0(Lcom/hf/share/ShareManager; Landroid/content/Context; Lcom/hf/share/Share; Landroid/view/View; Lcom/hf/model/CityModel;)V', u'Lcom/hf/UI/HFDialog;->getListView()Landroid/widget/ListView;', u'Lcom/hf/view/SKView;->setAirQuality(Ljava/lang/String; Z)V', u'Lcom/hf/share/ShareManager$1;-><init>(Lcom/hf/share/ShareManager; Lcom/hf/UI/HFDialog; Landroid/content/Context; Ljava/util/List; Landroid/view/View; Lcom/hf/model/CityModel;)V', u'Lcom/hf/share/ShareManager;->getAnniversaryShareList(Landroid/content/Context;)Ljava/util/List;', u'Lcom/hf/share/ShareManager;->saveViewToSDCard(Landroid/content/Context; Landroid/view/View;)Ljava/lang/String;', u'Lcom/hf/view/DialogShow$17;-><init>(Lcom/hf/UI/HFDialog; Lc\n---\nADDED set([u'Lcom/hf/share/ShareManager$1;->onSuccess()V', u'Lcom/hf/view/SKView;->setFeelTempterture(Ljava/lang/String;)V', u'Lcom/hf/view/DialogShow$17;-><init>(Lcom/hf/UI/HFDialog;)V', u'Lcom/hf/share/ShareManager$1;->onFailure(I Ljava/lang/String;)V', u'Lcom/hf/share/ShareManager$1;-><init>(Lcom/hf/share/ShareManager; Lcom/hf/activity/RootActivity; Ljava/lang/String;)V', u'Lcom/hf/view/SKView;->setAirQuality(Ljava/lang/String;)V'])"
p51
sg5
S'CHANGED (JI 99.84%)'
p52
sg7
F99.840000000000003
sa(dp53
g3
S"\nDELETED set([u'Lcom/hf/share/ShareManager;->saveBitmapTemp(Landroid/content/Context; Landroid/view/View;)Ljava/lang/String;', u'Lcom/hf/share/ShareManager;->showAnniversaryShareDialog(Landroid/content/Context; Landroid/view/View; Lcom/hf/model/CityModel;)V', u'Lcom/hf/share/LocaleSave;->saveViewToSdcard(Landroid/content/Context; Landroid/view/View;)Ljava/lang/String;', u'Lcom/hf/share/BaiDuShare$1;->onException(Ljava/lang/String;)V', u'Lcom/hf/UI/HFDialog;->getListView()Landroid/widget/ListView;', u'Lcom/hf/view/DialogShow$20;-><init>(Lcom/hf/UI/HFDialog; Lcom/hf/view/DialogShow$DialogListener;)V', u'Lcom/hf/share/ShareManager$2;->onSuccess()V', u'Lcom/hf/share/SMSShare;->imageShare(Ljava/lang/String; Ljava/lang/String;)V', u'Lcom/hf/share/ShareManager;->getAnniversaryShareList(Landroid/content/Context;)Ljava/util/List;', u'Lcom/hf/share/ShareUtils;->viewToBitmap(Landroid/view/View;)Landroid/graphics/Bitmap;', u'Lcom/hf/share/LocaleSave;->saveToData(Landroid/content/Context; Landroid/graphics/\n---\nADDED set([u'Lcom/hf/share/ShareManager$1;->onSuccess()V', u'Lcom/hf/view/SKView;->setFeelTempterture(Ljava/lang/String;)V', u'Lcom/hf/view/DialogShow$17;-><init>(Lcom/hf/UI/HFDialog;)V', u'Lcom/hf/share/ShareManager$1;->onFailure(I Ljava/lang/String;)V', u'Lcom/hf/share/ShareManager$1;-><init>(Lcom/hf/share/ShareManager; Lcom/hf/activity/RootActivity; Ljava/lang/String;)V', u'Lcom/hf/view/SKView;->setAirQuality(Ljava/lang/String;)V'])"
p54
sg5
S'CHANGED (JI 99.6%)'
p55
sg7
F99.599999999999994
sa(dp56
g3
S"\nDELETED set([u'Lcom/hf/share/ShareManager;->saveBitmapTemp(Landroid/content/Context; Landroid/view/View;)Ljava/lang/String;', u'Lcom/hf/share/ShareManager;->showAnniversaryShareDialog(Landroid/content/Context; Landroid/view/View; Lcom/hf/model/CityModel;)V', u'Landroid/view/View;->destroyDrawingCache()V', u'Lcom/hf/share/ShareManager;->access$0(Lcom/hf/share/ShareManager; Landroid/content/Context; Lcom/hf/share/Share; Landroid/view/View; Lcom/hf/model/CityModel;)V', u'Lcom/hf/UI/HFDialog;->getListView()Landroid/widget/ListView;', u'Lcom/hf/view/SKView;->setAirQuality(Ljava/lang/String; Z)V', u'Landroid/graphics/Bitmap;->compress(Landroid/graphics/Bitmap$CompressFormat; I Ljava/io/OutputStream;)Z', u'Lcom/hf/share/ShareManager$1;-><init>(Lcom/hf/share/ShareManager; Lcom/hf/UI/HFDialog; Landroid/content/Context; Ljava/util/List; Landroid/view/View; Lcom/hf/model/CityModel;)V', u'Landroid/graphics/Bitmap;->createBitmap(Landroid/graphics/Bitmap; I I I I)Landroid/graphics/Bitmap;', u'Landroid/view/\n---\nADDED set([u'Lcom/hf/share/ShareManager$1;->onSuccess()V', u'Lcom/hf/view/SKView;->setFeelTempterture(Ljava/lang/String;)V', u'Lcom/hf/view/DialogShow$17;-><init>(Lcom/hf/UI/HFDialog;)V', u'Lcom/hf/share/ShareManager$1;->onFailure(I Ljava/lang/String;)V', u'Lcom/hf/share/ShareManager$1;-><init>(Lcom/hf/share/ShareManager; Lcom/hf/activity/RootActivity; Ljava/lang/String;)V', u'Lcom/hf/view/SKView;->setAirQuality(Ljava/lang/String;)V'])"
p57
sg5
S'CHANGED (JI 99.85%)'
p58
sg7
F99.849999999999994
sa(dp59
g3
S"\nDELETED set([u'aqi_level_des', u'mms://', u'systemMonth====', u'image/jpeg', u'systemMonth', u'/hfweather/', u'prefernceMonth====', u'smsShare', u'%s.jpg', u'yyyy-MM-dd_HH-mm-ss', u'http://app.weathercn.com/app/download/resource/new2_0/indices_tips/indices_tips.zip', u'http://app.weathercn.com/app/download/resource/new2_0/logo_bg/logo_bg.zip', u'temp.jpg', u'mPath = '])\n---\nADDED set([u'dynamic_bg_version', u'http://app.weathercn.com/app/download/resource/2_1/logo_bg/logo_bg.zip', u'2_1x_tips_version', u'2_1x_logo_version', u'http://app.weathercn.com/app/download/resource/2_1/indices_tips/indices_tips.zip'])"
p60
sg5
S'CHANGED (JI 99.59%)'
p61
sg7
F99.590000000000003
sa(dp62
g3
S"\nDELETED set(['Lcom/hf/share/BaiDuShare$2;->this$0 Lcom/hf/share/BaiDuShare; [access_flags=synthetic final]\\n', 'Lcom/hf/share/ShareAnniversary$2;->val$mRootLayout Landroid/widget/RelativeLayout; [access_flags=private synthetic final]\\n', 'Lcom/hf/share/ShareAnniversary$2;->val$context Landroid/content/Context; [access_flags=private synthetic final]\\n', 'Lcom/hf/share/Share;->mContext Landroid/content/Context; [access_flags=public]\\n', 'Lcom/hf/view/DialogShow$20;->val$dialog Lcom/hf/UI/HFDialog; [access_flags=private synthetic final]\\n', 'Lcom/hf/share/ShareManager$1;->val$view Landroid/view/View; [access_flags=private synthetic final]\\n', 'Lcom/hf/share/LocaleSave;->IMAGE_DIR_PATH Ljava/lang/String; [access_flags=private static final]\\n', 'Lcom/hf/share/BaiDuShare;->mMessage Ljava/lang/String; [access_flags=private]\\n', 'Lcom/hf/share/ShareManager$1;->val$shareDialog Lcom/hf/UI/HFDialog; [access_flags=private synthetic final]\\n', 'Lcom/hf/share/Share;->mIconId I [access_flags=public]\\n', 'Lco\n---\nADDED set(['Lcom/hf/share/ShareManager$1;->val$activity Lcom/hf/activity/RootActivity; [access_flags=private synthetic final]\\n', 'Lcom/hf/share/ShareManager$1;->val$event_id Ljava/lang/String; [access_flags=private synthetic final]\\n', 'Lcom/hf/view/SKView;->mAqi Landroid/widget/TextView; [access_flags=private]\\n', 'Lcom/hf/view/SKView;->mAqiOrFeel Landroid/widget/TextView; [access_flags=private]\\n'])"
p63
sg5
S'CHANGED (JI 99.36%)'
p64
sg7
F99.359999999999999
sa.