(lp1
(dp2
S'detailed'
p3
S'EQUAL'
p4
sS'not_detailed'
p5
S'EQUAL'
p6
sS'score'
p7
I100
sa(dp8
g3
S'EQUAL'
p9
sg5
S'EQUAL'
p10
sg7
I100
sa(dp11
g3
S'EQUAL'
p12
sg5
S'EQUAL'
p13
sg7
I100
sa(dp14
g3
S'EQUAL'
p15
sg5
S'EQUAL'
p16
sg7
I100
sa(dp17
g3
S'EQUAL'
p18
sg5
S'EQUAL'
p19
sg7
I100
sa(dp20
g3
S'EQUAL'
p21
sg5
S'EQUAL'
p22
sg7
I100
sa(dp23
g3
S"\nDELETED set([])\n---\nADDED set(['android.permission.READ_PHONE_STATE', 'android.permission.USE_CREDENTIALS', 'android.permission.AUTHENTICATE_ACCOUNTS', 'android.permission.MANAGE_ACCOUNTS', 'android.permission.SYSTEM_ALERT_WINDOW', 'android.permission.KILL_BACKGROUND_PROCESSES', 'android.permission.GET_TASKS', 'android.permission.RESTART_PACKAGES', 'android.permission.GET_ACCOUNTS'])"
p24
sg5
S'CHANGED (JI 47.06%)'
p25
sg7
F47.060000000000002
sa(dp26
g3
S'EQUAL'
p27
sg5
S'EQUAL'
p28
sg7
I100
sa(dp29
g3
S'EQUAL'
p30
sg5
S'EQUAL'
p31
sg7
I100
sa(dp32
g3
S"\nDELETED set([])\n---\nADDED set(['com.inject_tencent.tauth.TAuthView', 'com.muzhiwan.embed.screenshot.ScreenEditActivity', 'com.muzhiwan.libs.accounts.userinfo.UserLoginActivity', 'com.muzhiwan.libs.accounts.userinfo.UserRegisterActivity', 'com.muzhiwan.embed.MzwActivity', 'com.muzhiwan.embed.MzwEmbededActivity'])"
p33
sg5
S'CHANGED (JI 25.0%)'
p34
sg7
F25
sa(dp35
g3
S"\nDELETED set([])\n---\nADDED set([u'/mzw_config', u'lib/armeabi/libmzwinject.so', u'res/xml/authenticator.xml', u'res/drawable-hdpi/mzw_icon.png', u'mzw.dat', u'/mzw_gsv', u'res/xml/syncadapter.xml'])"
p36
sg5
S'CHANGED (JI 78.79%)'
p37
sg7
F78.790000000000006
sa(dp38
g3
S"\nDELETED set([])\n---\nADDED set(['com.muzhiwan.embed.RestartService', 'com.muzhiwan.embed.LogService', 'com.muzhiwan.embed.RemoteBackupService', 'com.muzhiwan.embed.PopWindowService', 'com.muzhiwan.embed.DownLoadService'])"
p39
sg5
S'CHANGED (JI 16.67%)'
p40
sg7
F16.670000000000002
sa(dp41
g3
S"\nDELETED set([])\n---\nADDED set(['com.muzhiwan.embed.KillBroadcastReceiver'])"
p42
sg5
S'CHANGED (JI 50.0%)'
p43
sg7
F50
sa(dp44
g3
S"\nDELETED set([])\n---\nADDED set([u'Lcom/muzhiwan/embed/sdk/jni/MzwLib;', u'Lcom/muzhiwan/embed/sdk/MzwApplication;', u'Landroid/content/pm/Signature;', u'Lcom/muzhiwan/embed/sdk/PopUtils;'])"
p45
sg5
S'CHANGED (JI 98.9%)'
p46
sg7
F98.900000000000006
sa(dp47
g3
S"\nDELETED set([])\n---\nADDED set([u'Lcom/muzhiwan/embed/sdk/PopUtils;->setCatchHandler(Landroid/content/Context;)V', u'Lcom/muzhiwan/embed/sdk/MzwApplication;-><init>()V', u'Lorg/renpy/android/PythonActivity;->getResources()Landroid/content/res/Resources;', u'Lcom/muzhiwan/embed/sdk/MzwApplication;->onCreate()V', u'Lcom/muzhiwan/embed/sdk/PopUtils;-><init>()V', u'Lcom/muzhiwan/embed/sdk/PopUtils;->showWindow(Landroid/content/Context;)V', u'Lcom/muzhiwan/embed/sdk/PopUtils;->send()V', u'Lcom/muzhiwan/embed/sdk/jni/MzwLib;->call(Landroid/content/Context;)I', u'Lcom/muzhiwan/embed/sdk/jni/MzwLib;-><clinit>()V', u'Lorg/renpy/android/DownloaderActivity;->onResume()V', u'Lcom/muzhiwan/embed/sdk/PopUtils;->fuck(Ljavax/microedition/khronos/egl/EGL10;)V', u'Lorg/renpy/android/DownloaderActivity;->onPause()V', u'Lcom/muzhiwan/embed/sdk/PopUtils;->openSDKTag()V', u'Lcom/muzhiwan/embed/sdk/PopUtils;->xiaozemaliya(Landroid/content/Context;)V', u'Lorg/renpy/android/DownloaderService;->onCreate()V', u'Lorg/renpy/android/Download"
p48
sg5
S'CHANGED (JI 97.53%)'
p49
sg7
F97.530000000000001
sa(dp50
g3
S"\nDELETED set([])\n---\nADDED set([u'Lorg/renpy/android/DownloaderActivity;->onResume()V', u'Lorg/renpy/android/DownloaderService;->onCreate()V', u'Lorg/renpy/android/DownloaderActivity;->getResources()Landroid/content/res/Resources;', u'Lorg/renpy/android/DownloaderActivity;->onPause()V', u'Lorg/renpy/android/PythonActivity;->getResources()Landroid/content/res/Resources;'])"
p51
sg5
S'CHANGED (JI 99.37%)'
p52
sg7
F99.370000000000005
sa(dp53
g3
S"\nDELETED set([])\n---\nADDED set([u'Lcom/muzhiwan/embed/sdk/PopUtils;->setCatchHandler(Landroid/content/Context;)V', u'Lcom/muzhiwan/embed/sdk/MzwApplication;-><init>()V', u'Lcom/muzhiwan/embed/sdk/PopUtils;->capture(Ljavax/microedition/khronos/opengles/GL10;)V', u'Landroid/app/Application;-><init>()V', u'Ljava/lang/Object;->hashCode()I', u'Landroid/app/Application;->onCreate()V', u'Ljava/lang/Exception;->getMessage()Ljava/lang/String;', u'Landroid/content/pm/Signature;->toCharsString()Ljava/lang/String;', u'Lcom/muzhiwan/embed/sdk/PopUtils;-><init>()V', u'Lcom/muzhiwan/embed/sdk/PopUtils;->showWindow(Landroid/content/Context;)V', u'Lcom/muzhiwan/embed/sdk/PopUtils;->send()V', u'Lcom/muzhiwan/embed/sdk/jni/MzwLib;->call(Landroid/content/Context;)I', u'Lcom/muzhiwan/embed/sdk/jni/MzwLib;-><clinit>()V', u'Lorg/renpy/android/DownloaderActivity;->onResume()V', u'Landroid/content/Context;->getResources()Landroid/content/res/Resources;', u'Ljava/lang/Throwable;->printStackTrace()V', u'Lcom/muzhiwan/embed/sdk/PopUtils;->"
p54
sg5
S'CHANGED (JI 98.19%)'
p55
sg7
F98.189999999999998
sa(dp56
g3
S"\nDELETED set([])\n---\nADDED set([u'Lorg/renpy/android/DownloaderActivity;->onResume()V', u'Landroid/content/Context;->getResources()Landroid/content/res/Resources;', u'Ljava/lang/Throwable;->printStackTrace()V', u'Lorg/renpy/android/DownloaderActivity;->onPause()V', u'Landroid/app/Application;-><init>()V', u'Ljava/lang/Object;->hashCode()I', u'Landroid/app/Application;->onCreate()V', u'Ljava/lang/Exception;->getMessage()Ljava/lang/String;', u'Lorg/renpy/android/DownloaderService;->onCreate()V', u'Lorg/renpy/android/DownloaderActivity;->getResources()Landroid/content/res/Resources;', u'Ljava/lang/StringBuilder;-><init>(Ljava/lang/String;)V', u'Ljava/lang/Class;->getMethod(Ljava/lang/String; [Ljava/lang/Class;)Ljava/lang/reflect/Method;'])"
p57
sg5
S'CHANGED (JI 99.22%)'
p58
sg7
F99.219999999999999
sa(dp59
g3
S"\nDELETED set([])\n---\nADDED set([u'mzw_logger', u'openSDKTAG', u'bind', u'fuckCapture', u'com.muzhiwan.embed.utils.LoggerUtils', u'send', u'send logger:', u'bind logger:', u'com.muzhiwan.embed.screenshot.ScreenshotHandler', u'sendAction', u'readyCapture', u'com.muzhiwan.lib.common.utils.ResourceUtils', u'mzwinject', u'com.muzhiwan.embed.PopWindowService', u'getBaseContext'])"
p60
sg5
S'CHANGED (JI 97.76%)'
p61
sg7
F97.760000000000005
sa(dp62
g3
S"\nDELETED set([])\n---\nADDED set(['Lcom/muzhiwan/embed/sdk/PopUtils;->showTitle Z [access_flags=private static]\\n', 'Lorg/renpy/android/DownloaderService;->INJECT_SERVICE Landroid/app/Service; [access_flags=public static]\\n'])"
p63
sg5
S'CHANGED (JI 99.58%)'
p64
sg7
F99.579999999999998
sa.