(lp1
(dp2
S'detailed'
p3
S'EQUAL'
p4
sS'not_detailed'
p5
S'EQUAL'
p6
sS'score'
p7
I100
sa(dp8
g3
S'EQUAL'
p9
sg5
S'EQUAL'
p10
sg7
I100
sa(dp11
g3
S'EQUAL'
p12
sg5
S'EQUAL'
p13
sg7
I100
sa(dp14
g3
S'EQUAL'
p15
sg5
S'EQUAL'
p16
sg7
I100
sa(dp17
g3
S'EQUAL'
p18
sg5
S'EQUAL'
p19
sg7
I100
sa(dp20
g3
S'EQUAL'
p21
sg5
S'EQUAL'
p22
sg7
I100
sa(dp23
g3
S'EQUAL (JI 100%)'
p24
sg5
S'EQUAL (JI 100%)'
p25
sg7
I100
sa(dp26
g3
S'EQUAL'
p27
sg5
S'EQUAL'
p28
sg7
I100
sa(dp29
g3
S'EQUAL'
p30
sg5
S'EQUAL'
p31
sg7
I100
sa(dp32
g3
S'EQUAL (JI 100%)'
p33
sg5
S'EQUAL (JI 100%)'
p34
sg7
I100
sa(dp35
g3
S"\nDELETED set(['META-INF/CERT.RSA', 'META-INF/CERT.SF'])\n---\nADDED set(['META-INF/KUAIDITO.RSA', 'META-INF/KUAIDITO.SF'])"
p36
sg5
S'CHANGED (JI 94.2%)'
p37
sg7
F94.200000000000003
sa(dp38
g3
S'EQUAL (JI 100%)'
p39
sg5
S'EQUAL (JI 100%)'
p40
sg7
I100
sa(dp41
g3
S'EQUAL (JI 100%)'
p42
sg5
S'EQUAL (JI 100%)'
p43
sg7
I100
sa(dp44
g3
S"\nDELETED set([])\n---\nADDED set([u'Lcom/cjdao/http/CjdaoCacheableHttpRequest$1;'])"
p45
sg5
S'CHANGED (JI 99.59%)'
p46
sg7
F99.590000000000003
sa(dp47
g3
S"\nDELETED set([u'Lcom/cjdao/trackback/DetailActivity;->access$0(Lcom/cjdao/trackback/DetailActivity;)Ljava/lang/String;', u'Lcom/cjdao/trackback/SearchActivity$SearchAdapter;->access$0(Lcom/cjdao/trackback/SearchActivity$SearchAdapter;)V', u'Lcom/cjdao/http/CjdaoCacheableHttpRequest$EventHandler;-><init>(Lcom/cjdao/http/CjdaoCacheableHttpRequest; Lcom/cjdao/http/CjdaoCacheableHttpRequest; Lcom/cjdao/http/CjdaoCacheableHttpRequest$EventHandler;)V', u'Lcom/cjdao/trackback/DetailActivity;->access$1(Lcom/cjdao/trackback/DetailActivity;)Ljava/lang/String;', u'Lcom/cjdao/trackback/SearchActivity$SearchAdapter;->access$1(Lcom/cjdao/trackback/SearchActivity$SearchAdapter; Ljava/lang/String;)V', u'Lcom/cjdao/trackback/SearchActivity;->access$0(Lcom/cjdao/trackback/SearchActivity;)Landroid/widget/EditText;', u'Lcom/cjdao/trackback/DetailActivity;->access$2(Lcom/cjdao/trackback/DetailActivity;)I', u'Lcom/cjdao/http/CjdaoCacheableHttpRequest;->access$0(Lcom/cjdao/http/CjdaoCacheableHttpRequest;)Lcom/cjdao/h\n---\nADDED set([u'Lcom/cjdao/trackback/DetailActivity;->access$000(Lcom/cjdao/trackback/DetailActivity;)Ljava/lang/String;', u'Lcom/cjdao/http/CjdaoCacheableHttpRequest;->access$100(Lcom/cjdao/http/CjdaoCacheableHttpRequest;)Lcom/cjdao/http/ICjdaoCacheableHttpRequestListener;', u'Lcom/cjdao/trackback/SearchActivity$SearchAdapter;->access$200(Lcom/cjdao/trackback/SearchActivity$SearchAdapter; Ljava/lang/String;)V', u'Lcom/cjdao/http/CjdaoCacheableHttpRequest$EventHandler;-><init>(Lcom/cjdao/http/CjdaoCacheableHttpRequest; Lcom/cjdao/http/CjdaoCacheableHttpRequest; Lcom/cjdao/http/CjdaoCacheableHttpRequest$1;)V', u'Lcom/cjdao/trackback/DetailActivity;->access$200(Lcom/cjdao/trackback/DetailActivity;)I', u'Lcom/cjdao/trackback/SearchActivity$SearchAdapter;->access$100(Lcom/cjdao/trackback/SearchActivity$SearchAdapter;)V', u'Lcom/cjdao/trackback/SearchActivity;->access$000(Lcom/cjdao/trackback/SearchActivity;)Landroid/widget/EditText;', u'Lcom/cjdao/trackback/DetailActivity;->access$100(Lcom/cjdao/tr"
p48
sg5
S'CHANGED (JI 96.77%)'
p49
sg7
F96.769999999999996
sa(dp50
g3
S"\nDELETED set([u'Lcom/cjdao/trackback/DetailActivity;->access$0(Lcom/cjdao/trackback/DetailActivity;)Ljava/lang/String;', u'Lcom/cjdao/trackback/SearchActivity$SearchAdapter;->access$0(Lcom/cjdao/trackback/SearchActivity$SearchAdapter;)V', u'Lcom/cjdao/http/CjdaoCacheableHttpRequest$EventHandler;-><init>(Lcom/cjdao/http/CjdaoCacheableHttpRequest; Lcom/cjdao/http/CjdaoCacheableHttpRequest; Lcom/cjdao/http/CjdaoCacheableHttpRequest$EventHandler;)V', u'Lcom/cjdao/trackback/DetailActivity;->access$1(Lcom/cjdao/trackback/DetailActivity;)Ljava/lang/String;', u'Lcom/cjdao/trackback/SearchActivity$SearchAdapter;->access$1(Lcom/cjdao/trackback/SearchActivity$SearchAdapter; Ljava/lang/String;)V', u'Lcom/cjdao/trackback/SearchActivity;->access$0(Lcom/cjdao/trackback/SearchActivity;)Landroid/widget/EditText;', u'Lcom/cjdao/trackback/DetailActivity;->access$2(Lcom/cjdao/trackback/DetailActivity;)I', u'Lcom/cjdao/http/CjdaoCacheableHttpRequest;->access$0(Lcom/cjdao/http/CjdaoCacheableHttpRequest;)Lcom/cjdao/h\n---\nADDED set([u'Lcom/cjdao/trackback/DetailActivity;->access$000(Lcom/cjdao/trackback/DetailActivity;)Ljava/lang/String;', u'Lcom/cjdao/http/CjdaoCacheableHttpRequest;->access$100(Lcom/cjdao/http/CjdaoCacheableHttpRequest;)Lcom/cjdao/http/ICjdaoCacheableHttpRequestListener;', u'Lcom/cjdao/trackback/SearchActivity$SearchAdapter;->access$200(Lcom/cjdao/trackback/SearchActivity$SearchAdapter; Ljava/lang/String;)V', u'Lcom/cjdao/http/CjdaoCacheableHttpRequest$EventHandler;-><init>(Lcom/cjdao/http/CjdaoCacheableHttpRequest; Lcom/cjdao/http/CjdaoCacheableHttpRequest; Lcom/cjdao/http/CjdaoCacheableHttpRequest$1;)V', u'Lcom/cjdao/trackback/DetailActivity;->access$200(Lcom/cjdao/trackback/DetailActivity;)I', u'Lcom/cjdao/trackback/SearchActivity$SearchAdapter;->access$100(Lcom/cjdao/trackback/SearchActivity$SearchAdapter;)V', u'Lcom/cjdao/trackback/SearchActivity;->access$000(Lcom/cjdao/trackback/SearchActivity;)Landroid/widget/EditText;', u'Lcom/cjdao/trackback/DetailActivity;->access$100(Lcom/cjdao/tr"
p51
sg5
S'CHANGED (JI 96.77%)'
p52
sg7
F96.769999999999996
sa(dp53
g3
S"\nDELETED set([u'Lcom/cjdao/trackback/DetailActivity;->access$0(Lcom/cjdao/trackback/DetailActivity;)Ljava/lang/String;', u'Lcom/cjdao/trackback/SearchActivity$SearchAdapter;->access$0(Lcom/cjdao/trackback/SearchActivity$SearchAdapter;)V', u'Lcom/cjdao/http/CjdaoCacheableHttpRequest$EventHandler;-><init>(Lcom/cjdao/http/CjdaoCacheableHttpRequest; Lcom/cjdao/http/CjdaoCacheableHttpRequest; Lcom/cjdao/http/CjdaoCacheableHttpRequest$EventHandler;)V', u'Lcom/cjdao/trackback/DetailActivity;->access$1(Lcom/cjdao/trackback/DetailActivity;)Ljava/lang/String;', u'Lcom/cjdao/trackback/SearchActivity$SearchAdapter;->access$1(Lcom/cjdao/trackback/SearchActivity$SearchAdapter; Ljava/lang/String;)V', u'Lcom/cjdao/trackback/SearchActivity;->access$0(Lcom/cjdao/trackback/SearchActivity;)Landroid/widget/EditText;', u'Lcom/cjdao/trackback/DetailActivity;->access$2(Lcom/cjdao/trackback/DetailActivity;)I', u'Lcom/cjdao/http/CjdaoCacheableHttpRequest;->access$0(Lcom/cjdao/http/CjdaoCacheableHttpRequest;)Lcom/cjdao/h\n---\nADDED set([u'Lcom/cjdao/trackback/SearchActivity$SearchAdapter;->access$200(Lcom/cjdao/trackback/SearchActivity$SearchAdapter; Ljava/lang/String;)V', u'Lcom/cjdao/http/CjdaoCacheableHttpRequest;->access$100(Lcom/cjdao/http/CjdaoCacheableHttpRequest;)Lcom/cjdao/http/ICjdaoCacheableHttpRequestListener;', u'Lcom/cjdao/trackback/DetailActivity;->access$000(Lcom/cjdao/trackback/DetailActivity;)Ljava/lang/String;', u'Lcom/cjdao/http/CjdaoCacheableHttpRequest$EventHandler;-><init>(Lcom/cjdao/http/CjdaoCacheableHttpRequest; Lcom/cjdao/http/CjdaoCacheableHttpRequest; Lcom/cjdao/http/CjdaoCacheableHttpRequest$1;)V', u'Lcom/cjdao/trackback/DetailActivity;->access$200(Lcom/cjdao/trackback/DetailActivity;)I', u'Lcom/cjdao/trackback/SearchActivity$SearchAdapter;->access$100(Lcom/cjdao/trackback/SearchActivity$SearchAdapter;)V', u'Lcom/cjdao/trackback/SearchActivity;->access$000(Lcom/cjdao/trackback/SearchActivity;)Landroid/widget/EditText;', u'Lcom/cjdao/trackback/DetailActivity;->access$100(Lcom/cjdao/tr"
p54
sg5
S'CHANGED (JI 98.5%)'
p55
sg7
F98.5
sa(dp56
g3
S"\nDELETED set([u'Lcom/cjdao/trackback/DetailActivity;->access$0(Lcom/cjdao/trackback/DetailActivity;)Ljava/lang/String;', u'Lcom/cjdao/trackback/SearchActivity$SearchAdapter;->access$0(Lcom/cjdao/trackback/SearchActivity$SearchAdapter;)V', u'Lcom/cjdao/http/CjdaoCacheableHttpRequest$EventHandler;-><init>(Lcom/cjdao/http/CjdaoCacheableHttpRequest; Lcom/cjdao/http/CjdaoCacheableHttpRequest; Lcom/cjdao/http/CjdaoCacheableHttpRequest$EventHandler;)V', u'Lcom/cjdao/trackback/DetailActivity;->access$1(Lcom/cjdao/trackback/DetailActivity;)Ljava/lang/String;', u'Lcom/cjdao/trackback/SearchActivity$SearchAdapter;->access$1(Lcom/cjdao/trackback/SearchActivity$SearchAdapter; Ljava/lang/String;)V', u'Lcom/cjdao/trackback/SearchActivity;->access$0(Lcom/cjdao/trackback/SearchActivity;)Landroid/widget/EditText;', u'Lcom/cjdao/trackback/DetailActivity;->access$2(Lcom/cjdao/trackback/DetailActivity;)I', u'Lcom/cjdao/http/CjdaoCacheableHttpRequest;->access$0(Lcom/cjdao/http/CjdaoCacheableHttpRequest;)Lcom/cjdao/h\n---\nADDED set([u'Lcom/cjdao/trackback/SearchActivity$SearchAdapter;->access$200(Lcom/cjdao/trackback/SearchActivity$SearchAdapter; Ljava/lang/String;)V', u'Lcom/cjdao/http/CjdaoCacheableHttpRequest;->access$100(Lcom/cjdao/http/CjdaoCacheableHttpRequest;)Lcom/cjdao/http/ICjdaoCacheableHttpRequestListener;', u'Lcom/cjdao/trackback/DetailActivity;->access$000(Lcom/cjdao/trackback/DetailActivity;)Ljava/lang/String;', u'Lcom/cjdao/http/CjdaoCacheableHttpRequest$EventHandler;-><init>(Lcom/cjdao/http/CjdaoCacheableHttpRequest; Lcom/cjdao/http/CjdaoCacheableHttpRequest; Lcom/cjdao/http/CjdaoCacheableHttpRequest$1;)V', u'Lcom/cjdao/trackback/DetailActivity;->access$200(Lcom/cjdao/trackback/DetailActivity;)I', u'Lcom/cjdao/trackback/SearchActivity$SearchAdapter;->access$100(Lcom/cjdao/trackback/SearchActivity$SearchAdapter;)V', u'Lcom/cjdao/trackback/SearchActivity;->access$000(Lcom/cjdao/trackback/SearchActivity;)Landroid/widget/EditText;', u'Lcom/cjdao/trackback/DetailActivity;->access$100(Lcom/cjdao/tr"
p57
sg5
S'CHANGED (JI 98.5%)'
p58
sg7
F98.5
sa(dp59
g3
S'EQUAL (JI 100%)'
p60
sg5
S'EQUAL (JI 100%)'
p61
sg7
I100
sa(dp62
g3
S'EQUAL (JI 100%)'
p63
sg5
S'EQUAL (JI 100%)'
p64
sg7
I100
sa.