(lp1
(dp2
S'detailed'
p3
S'DIFFERENT: 2500!=1'
p4
sS'not_detailed'
p5
S'CHANGED'
p6
sS'score'
p7
I0
sa(dp8
g3
S'DIFFERENT: 1.8.0!=1.1'
p9
sg5
S'CHANGED'
p10
sg7
I0
sa(dp11
g3
S'DIFFERENT: 10!=3'
p12
sg5
S'CHANGED'
p13
sg7
I0
sa(dp14
g3
S'EQUAL'
p15
sg5
S'EQUAL'
p16
sg7
I100
sa(dp17
g3
S'DIFFERENT: 17!=None'
p18
sg5
S'CHANGED'
p19
sg7
I0
sa(dp20
g3
S'DIFFERENT: 17!=3'
p21
sg5
S'CHANGED'
p22
sg7
I0
sa(dp23
g3
S"\nDELETED set(['android.permission.ACCESS_FINE_LOCATION', 'com.google.android.c2dm.permission.RECEIVE', 'android.permission.ACCESS_WIFI_STATE', 'android.permission.WAKE_LOCK', 'android.permission.ACCESS_NETWORK_STATE', 'com.turner.copatoon.permission.C2D_MESSAGE', 'android.permission.WRITE_EXTERNAL_STORAGE', 'android.permission.GET_ACCOUNTS'])\n---\nADDED set([])"
p24
sg5
S'CHANGED (JI 20.0%)'
p25
sg7
F20
sa(dp26
g3
S'DIFFERENT: com.turner.copatoon!=loongmobile.WeatherForecast'
p27
sg5
S'CHANGED'
p28
sg7
I0
sa(dp29
g3
S'DIFFERENT: Copa Toon!=\xe8\x85\xbe\xe9\xbe\x99\xe5\xa4\xa9\xe6\xb0\x94'
p30
sg5
S'CHANGED'
p31
sg7
I0
sa(dp32
g3
S"\nDELETED set(['com.unity3d.player.VideoPlayer', 'com.turner.copatoon..RegularUnityActivity', 'com.playhaven.android.view.FullScreen'])\n---\nADDED set(['loongmobile.WeatherForecast..ConfigureActivity', 'loongmobile.WeatherForecast..InfoActivity', 'loongmobile.WeatherForecast..DetailsActivity', 'loongmobile.WeatherForecast..WidgetUpgradeActivity'])"
p33
sg5
S'CHANGED (JI 0.0%)'
p34
sg7
F0
sa(dp35
g3
S"\nDELETED set(['assets/bin/Data/e10c73bf97b551b49978aaca558e3220', 'assets/bin/Data/03ed4ff2290cb4449bfc775e2b06768d', 'assets/bin/Data/0601b641f78e80c4aa5d593f54f75c1b', 'assets/bin/Data/d620f2bc0014f2447883bb22f7846df9', 'assets/bin/Data/675e8a5dcd5c05341bbc213f11986ce2', 'assets/bin/Data/sharedassets5.assets.split2', 'assets/bin/Data/sharedassets5.assets.split3', 'assets/bin/Data/sharedassets5.assets.split0', 'assets/bin/Data/sharedassets5.assets.split1', 'assets/bin/Data/sharedassets5.assets.split6', 'assets/bin/Data/sharedassets5.assets.split4', 'assets/bin/Data/sharedassets5.assets.split5', 'assets/bin/Data/75bc9d9d8eba7f140967bf6e00be3465', 'assets/bin/Data/532d01e4fa9287948b23e23b6889c5d7', 'assets/bin/Data/0d6159e680db64a44b716d1dd23470d3', 'assets/bin/Data/09ab1c83201a6d24190c002a0a15e3cd', 'assets/bin/Data/435632f64a015e64186bcdb7e4a71a43', 'assets/bin/Data/59bfdd8755757ed48a27d3bd8a939b6f', 'assets/bin/Data/c410d4155e30f0b4f9787935a82e5eee', 'assets/bin/Data/Managed/UnityEngine.dll',\n---\nADDED set(['res/layout/widget_loading.xml', 'res/drawable/ic_dialog_menu_generic.png', 'res/drawable/weather_sunny.png', 'res/drawable/weather_light_rain.png', 'res/layout-land/widget_big.xml', 'res/drawable/widget_bg_selected.9.png', 'res/drawable/weather_clouds.png', 'res/layout/info.xml', 'res/xml/widget_small.xml', 'res/drawable/weather_mostly_cloudy.png', 'res/drawable/calendar.png', 'res/layout/widget_big.xml', 'res/drawable/weather_thunderstorms.png', 'res/drawable/panel_background.9.png', 'res/layout/configure.xml', 'res/xml/widget_big.xml', 'res/drawable/weather_few_clouds.png', 'res/drawable/weather_freezing_rain.png', 'res/layout/details_item.xml', 'res/drawable/widget_bg.xml', 'res/drawable/widget_bg_normal.9.png', 'res/drawable/weather_showers.png', 'res/layout-land/widget_small.xml', 'res/menu/menu.xml', 'res/layout/details.xml', 'res/drawable/listitem_background_normal.9.png', 'res/drawable/b4.jpg', 'res/drawable/ic_menu_refresh.png', 'res/drawable/weather_maybe_rain.png', 're"
p36
sg5
S'CHANGED (JI 1.5%)'
p37
sg7
F1.5
sa(dp38
g3
S"\nDELETED set([])\n---\nADDED set(['loongmobile.WeatherForecast..UpdateService'])"
p39
sg5
S'CHANGED (JI 0.0%)'
p40
sg7
F0
sa(dp41
g3
S"\nDELETED set(['com.playhaven.android.push.PushReceiver', 'com.playhaven.android.push.GCMBroadcastReceiver'])\n---\nADDED set(['loongmobile.WeatherForecast..TinyAppWidget', 'loongmobile.WeatherForecast..MedAppWidget'])"
p42
sg5
S'CHANGED (JI 0.0%)'
p43
sg7
F0
sa(dp44
g3
S"\nDELETED set([u'Ljava/io/FileNotFoundException;', u'Lcom/jayway/jsonpath/JsonModel$DefaultMappingModelReader;', u'Landroid/content/SharedPreferences;', u'Landroid/support/v4/widget/SearchViewCompatHoneycomb$1;', u'Lorg/springframework/web/util/UriComponents$Type$7;', u'Lorg/springframework/http/MediaType;', u'Landroid/support/v4/os/ParcelableCompatCreatorHoneycombMR2;', u'Lcom/jayway/jsonpath/spi/impl/AbstractJsonProvider;', u'Lcom/jayway/jsonpath/spi/impl/JsonSmartJsonProvider;', u'Lorg/apache/commons/lang/builder/ToStringStyle$ShortPrefixToStringStyle;', u'Lorg/apache/commons/lang/SerializationUtils;', u'Lorg/codehaus/jackson/map/ObjectMapper;', u'Lorg/apache/commons/lang/text/StrMatcher$CharSetMatcher;', u'Lorg/apache/commons/lang/text/StrMatcher$StringMatcher;', u'Lorg/apache/commons/lang/Validate;', u'Landroid/support/v4/content/ModernAsyncTask$InternalHandler;', u'Lorg/apache/commons/httpclient/methods/PostMethod;', u'Ljava/lang/reflect/Modifier;', u'Ljava/lang/StringIndexOutOfBoundsExcep\n---\nADDED set([u'Lloongmobile/WeatherForecast/R$attr;', u'Lcom/admob/android/ads/d$e;', u'Lcom/admob/android/ads/AdView$a;', u'Lloongmobile/WeatherForecast/R$string;', u'Lloongmobile/WeatherForecast/ForecastProvider;', u'Landroid/graphics/BitmapFactory;', u'Landroid/view/MenuInflater;', u'Lcom/admob/android/ads/d$1;', u'Lloongmobile/WeatherForecast/R$drawable;', u'Lloongmobile/WeatherForecast/MedAppWidget;', u'Lcom/admob/android/ads/g$b;', u'Landroid/view/animation/AccelerateDecelerateInterpolator;', u'Lloongmobile/WeatherForecast/R$color;', u'Lcom/admob/android/ads/f;', u'Lloongmobile/WeatherForecast/WidgetUpgradeActivity;', u'Landroid/graphics/PointF;', u'Lcom/admob/android/ads/d$d;', u'Landroid/view/animation/Transformation;', u'Lloongmobile/WeatherForecast/ConfigureActivity;', u'Lcom/admob/android/ads/AdListener;', u'Lcom/admob/android/ads/n;', u'Lloongmobile/WeatherForecast/UpdateService;', u'Landroid/graphics/Bitmap;', u'Landroid/view/animation/Interpolator;', u'Landroid/widget/RemoteViews"
p45
sg5
S'CHANGED (JI 7.75%)'
p46
sg7
F7.75
sa(dp47
g3
S"\nDELETED set([u'Landroid/support/v4/app/ListFragment;->setListShown(Z)V', u'Lorg/springframework/util/ClassUtils;->createCompositeInterface([Ljava/lang/Class; Ljava/lang/ClassLoader;)Ljava/lang/Class;', u'Lorg/springframework/core/io/UrlResource;->equals(Ljava/lang/Object;)Z', u'Landroid/support/v4/app/ShareCompat$IntentReader;->getEmailCc()[Ljava/lang/String;', u'Lorg/springframework/util/CollectionUtils$MultiValueMapAdapter;->getFirst(Ljava/lang/Object;)Ljava/lang/Object;', u'Lorg/apache/commons/lang/math/Range;->containsFloat(F)Z', u'Landroid/support/v4/view/AccessibilityDelegateCompat$AccessibilityDelegateIcsImpl$1;->onInitializeAccessibilityEvent(Landroid/view/View; Landroid/view/accessibility/AccessibilityEvent;)V', u'Lorg/springframework/http/converter/xml/SimpleXmlHttpMessageConverter;-><clinit>()V', u'Lorg/apache/commons/lang/mutable/MutableFloat;->floatValue()F', u'Landroid/support/v4/app/DialogFragment;->dismiss()V', u'Landroid/support/v4/app/FragmentActivity$NonConfigurationInstance\n---\nADDED set([u'Lcom/admob/android/ads/e;->a(Ljava/lang/String; Ljava/lang/String; Ljava/lang/String; Lorg/json/JSONObject; Lcom/admob/android/ads/h;)Lcom/admob/android/ads/r;', u'Lcom/admob/android/ads/i;-><init>(Ljava/lang/String; Ljava/lang/String; Ljava/lang/String; Lcom/admob/android/ads/h; I Ljava/util/Map; Ljava/lang/String;)V', u'Lcom/admob/android/ads/d$e;-><init>(Ljava/lang/String; Z)V', u'Lcom/admob/android/ads/AdView;->setRequestInterval(I)V', u'Lloongmobile/WeatherForecast/R$drawable;-><init>()V', u'Lloongmobile/WeatherForecast/R$id;-><init>()V', u'Lloongmobile/WeatherForecast/UpdateService;-><clinit>()V', u'Lloongmobile/WeatherForecast/InfoActivity;->onClick(Landroid/view/View;)V', u'Lloongmobile/WeatherForecast/InfoActivity;-><init>()V', u'Lcom/admob/android/ads/AdView;->a(Landroid/content/Context;)Z', u'Lcom/admob/android/ads/u;-><init>()V', u'Lcom/admob/android/ads/AdView;->a()V', u'Lloongmobile/WeatherForecast/ForecastProvider;->update(Landroid/net/Uri; Landroid/content/Conten"
p48
sg5
S'CHANGED (JI 0.0%)'
p49
sg7
F0
sa(dp50
g3
S'EQUAL (JI 100%)'
p51
sg5
S'EQUAL (JI 100%)'
p52
sg7
I100
sa(dp53
g3
S"\nDELETED set([u'Landroid/support/v4/app/ListFragment;->setListShown(Z)V', u'Landroid/widget/TextView;->setTextAppearance(Landroid/content/Context; I)V', u'Landroid/content/Intent;->putExtra(Ljava/lang/String; Ljava/io/Serializable;)Landroid/content/Intent;', u'Landroid/view/accessibility/AccessibilityRecord;->setToIndex(I)V', u'Ljava/lang/StringBuilder;->replace(I I Ljava/lang/String;)Ljava/lang/StringBuilder;', u'Lorg/springframework/core/io/UrlResource;->equals(Ljava/lang/Object;)Z', u'Landroid/support/v4/app/ShareCompat$IntentReader;->getEmailCc()[Ljava/lang/String;', u'Lorg/apache/commons/lang/math/Range;->containsFloat(F)Z', u'Landroid/view/accessibility/AccessibilityManager;->addAccessibilityStateChangeListener(Landroid/view/accessibility/AccessibilityManager$AccessibilityStateChangeListener;)Z', u'Landroid/content/Intent;->setAction(Ljava/lang/String;)Landroid/content/Intent;', u'Lorg/springframework/http/converter/xml/SimpleXmlHttpMessageConverter;-><clinit>()V', u'Lorg/apache/commons/l\n---\nADDED set([u'Lcom/admob/android/ads/AdView;->startAnimation(Landroid/view/animation/Animation;)V', u'Lcom/admob/android/ads/i;-><init>(Ljava/lang/String; Ljava/lang/String; Ljava/lang/String; Lcom/admob/android/ads/h; I Ljava/util/Map; Ljava/lang/String;)V', u'Lcom/admob/android/ads/d$e;-><init>(Ljava/lang/String; Z)V', u'Lcom/admob/android/ads/AdView;->invalidate()V', u'Lcom/admob/android/ads/AdView;->a(Landroid/content/Context;)Z', u'Lcom/admob/android/ads/u;-><init>()V', u'Lcom/admob/android/ads/AdView;->a()V', u'Lloongmobile/WeatherForecast/ForecastProvider;-><init>()V', u'Lcom/admob/android/ads/AdView;->c()Z', u'Landroid/view/animation/ScaleAnimation;-><init>(F F F F F F)V', u'Lcom/admob/android/ads/d;->c(Lorg/json/JSONObject;)Z', u'Landroid/webkit/WebSettings;->setUserAgentString(Ljava/lang/String;)V', u'Lcom/admob/android/ads/view/AdMobWebView;->setBackgroundColor(I)V', u'Lcom/admob/android/ads/d;->d()Z', u'Lcom/admob/android/ads/AdView$d;->run()V', u'Lcom/admob/android/ads/AdView;->s"
p54
sg5
S'CHANGED (JI 2.72%)'
p55
sg7
F2.7200000000000002
sa(dp56
g3
S"\nDELETED set([u'Landroid/os/Bundle;->keySet()Ljava/util/Set;', u'Landroid/content/Intent;->putExtra(Ljava/lang/String; Ljava/io/Serializable;)Landroid/content/Intent;', u'Ljava/lang/StringBuilder;->indexOf(Ljava/lang/String;)I', u'Ljava/lang/StringBuilder;->replace(I I Ljava/lang/String;)Ljava/lang/StringBuilder;', u'Ljava/lang/Float;->isNaN(F)Z', u'Ljava/util/Date;->setTime(J)V', u'Ljava/lang/Float;->floatToIntBits(F)I', u'Ljava/lang/String;->charAt(I)C', u'Landroid/widget/TextView;->setTextAppearance(Landroid/content/Context; I)V', u'Ljava/util/Properties;->propertyNames()Ljava/util/Enumeration;', u'Landroid/app/AlarmManager;->cancel(Landroid/app/PendingIntent;)V', u'Ljava/math/BigInteger;->divide(Ljava/math/BigInteger;)Ljava/math/BigInteger;', u'Landroid/view/Display;->getRotation()I', u'Ljava/io/FileInputStream;->close()V', u'Ljava/io/File;-><init>(Ljava/lang/String; Ljava/lang/String;)V', u'Landroid/view/ViewGroup;->getId()I', u'Ljava/math/BigInteger;->valueOf(J)Ljava/math/BigInteger;', u'\n---\nADDED set([u'Landroid/widget/RelativeLayout;->onKeyUp(I Landroid/view/KeyEvent;)Z', u'Landroid/webkit/WebView;->onWindowVisibilityChanged(I)V', u'Ljava/util/Date;->toString()Ljava/lang/String;', u'Landroid/graphics/Rect;->contains(I I)Z', u'Landroid/os/Bundle;->putLong(Ljava/lang/String; J)V', u'Lorg/json/JSONObject;->optJSONObject(Ljava/lang/String;)Lorg/json/JSONObject;', u'Landroid/view/animation/Animation;->setDuration(J)V', u'Landroid/net/Uri;->withAppendedPath(Landroid/net/Uri; Ljava/lang/String;)Landroid/net/Uri;', u'Landroid/graphics/Canvas;->setDrawFilter(Landroid/graphics/DrawFilter;)V', u'Lorg/json/JSONObject;->toString(I)Ljava/lang/String;', u'Landroid/view/animation/ScaleAnimation;-><init>(F F F F F F)V', u'Landroid/view/animation/DecelerateInterpolator;-><init>()V', u'Landroid/webkit/WebSettings;->setUserAgentString(Ljava/lang/String;)V', u'Lorg/json/JSONObject;->optDouble(Ljava/lang/String;)D', u'Landroid/content/Context;->checkCallingOrSelfPermission(Ljava/lang/String;)I', u'"
p57
sg5
S'CHANGED (JI 24.36%)'
p58
sg7
F24.359999999999999
sa(dp59
g3
S'\nDELETED set([u\'pev3\', u\'pev2\', u\'pev1\', u\'FMODStreamBlocker\', u\'updateVideoLayout\', u\'upsih\', u\' mTag=\', u\'asymp\', u\'Range[\', u\'otimes\', u\'bin/Data/settings.xml\', u\'The List Number you have entered is not possible.  Correct values are integers 1-3.\', u\'8804\', u\' did not call through to super.onDestroyView()\', u\'8805\', u\'We recommend using strings where possible, but we are sending this parameter with a value of \', u"The Enum name must be unique, \'", u\'2.1.4-9-g9849864\', u\'%D2\', u\'%D3\', u\'%D0\', u\'%D1\', u\'%D6\', u\'%D7\', u\'%D4\', u\'%D5\', u\'Audience Manager - Unable to retrieve visitor profile from SharedPreferences, context is null\', u\'%D8\', u\'%D9\', u\'%DB\', u\'%DC\', u\'%DA\', u\'%DF\', u\'%DD\', u\'%DE\', u\'Proxy Authentication Required\', u\' is not known!\', u\'java.version\', u\' mStateSaved=\', u\'GB\', u\'960\', u\'android.support.PARENT_ACTIVITY\', u\'identity\', u\' to Integer\', u\'ns_ap_dit\', u\'": should be between 0.0 and 1.0\', u\'963\', u\'Resource URI must not be null\', u\'add() is unsupported\', u\'&d_ptfm=android&d_d\n---\nADDED set([u\'Could not read basic animation: could not interpret keyPath(\', u\' from now.\', u\'in onDisabled()\', u\'android.permission.INTERNET\', u\'\\u4e3a\\u4e3b\', u\'isGoneWithoutAd\', u\'\\u6d88\\u606f\\u901a\\u77e5\', u\'could not open connection to url \', u\'DROP TABLE IF EXISTS appwidgets\', u\'tv\', u\'tt\', u\'to\', u\'shouldUpdate\', u\'\\u9634\', u\'tf\', u\'ta\', u\'rc\', u\'vnd.android.cursor.item/forecast\', u\'ForcastHelper\', u\'getPublisherId returning null publisher id.  Please set the publisher id in AndroidManifest.xml or using AdManager.setPublisherId(String)\', u\'Cannot requestFreshAd() when the AdView is not visible.  Call AdView.setVisibility(View.VISIBLE) first.\', u\'com.admob.android.ads\', u\'delete() with uri=\', u\'exception caught in AdMobURLConnector.run(), \', u\'http://r.admob.com/ad_source.php\', u\'\\u6674\', u\'Trying to get locations from GPS.\', u\'CLICK_TO_CANVAS\', u\'Request returned status \', u\'exception caught in Ad$ViewAdd.run(), \', u\'onSaveInstanceState()\', u\'vnd.android.cursor.item/appwidget\', u\'onFoc'
p60
sg5
S'CHANGED (JI 2.21%)'
p61
sg7
F2.21
sa(dp62
g3
S"\nDELETED set(['Lcom/adobe/adms/measurement/ADMS_MeasurementBase;->linkType Ljava/lang/String; [access_flags=private]\\n', 'Lcom/comscore/applications/KeepAliveAlarmReceiver;->g Z [access_flags=private]\\n', 'Lorg/apache/commons/lang/text/StrSubstitutor;->enableSubstitutionInVariables Z [access_flags=private]\\n', 'Lcom/comscore/analytics/Core$UserInteractionTask;->a Lcom/comscore/analytics/Core; [access_flags=synthetic final]\\n', 'Lcom/comscore/metrics/Request;->REDIRECTION_SUPPORTED Z [access_flags=public static final]\\n', 'Lnet/minidev/json/JStylerObj;->ESCAPE_LT Lnet/minidev/json/JStylerObj$EscapeLT; [access_flags=public static final]\\n', 'Lcom/playhaven/android/data/Purchase$Result;->Owned Lcom/playhaven/android/data/Purchase$Result; [access_flags=public static enum final]\\n', 'Lcom/playhaven/android/Placement;->isLoading Z [access_flags=protected]\\n', 'Lorg/apache/commons/lang/math/Fraction;->ONE_FIFTH Lorg/apache/commons/lang/math/Fraction; [access_flags=public static final]\\n', 'Lcom/playha\n---\nADDED set(['Lcom/admob/android/ads/o;->e Ljava/util/Properties; [access_flags=private]\\n', 'Lloongmobile/WeatherForecast/ForecastProvider;->mOpenHelper Lloongmobile/WeatherForecast/ForecastProvider$DatabaseHelper; [access_flags=private]\\n', 'Lcom/admob/android/ads/d;->D Lcom/admob/android/ads/d$b; [access_flags=private]\\n', 'Lcom/admob/android/ads/o;->b Landroid/content/Context; [access_flags=private static]\\n', 'Lcom/admob/android/ads/d$g;->b Landroid/widget/RelativeLayout$LayoutParams; [access_flags=public]\\n', 'Lcom/admob/android/ads/g;->i F [access_flags=private static]\\n', 'Lcom/admob/android/ads/g;->b Landroid/widget/ProgressBar; [access_flags=protected]\\n', 'Lcom/admob/android/ads/AdView;->n Z [access_flags=private]\\n', 'Lloongmobile/WeatherForecast/ForecastProvider;->ID_PROJECTION [Ljava/lang/String; [access_flags=private static final]\\n', 'Lloongmobile/WeatherForecast/UpdateService;->sAppWidgetIds Ljava/util/Queue; [access_flags=private static]\\n', 'Lcom/admob/android/ads/g;->d Ljav"
p63
sg5
S'CHANGED (JI 0.0%)'
p64
sg7
F0
sa.