(lp1
(dp2
S'detailed'
p3
S'EQUAL'
p4
sS'not_detailed'
p5
S'EQUAL'
p6
sS'score'
p7
I100
sa(dp8
g3
S'EQUAL'
p9
sg5
S'EQUAL'
p10
sg7
I100
sa(dp11
g3
S'EQUAL'
p12
sg5
S'EQUAL'
p13
sg7
I100
sa(dp14
g3
S'EQUAL'
p15
sg5
S'EQUAL'
p16
sg7
I100
sa(dp17
g3
S'EQUAL'
p18
sg5
S'EQUAL'
p19
sg7
I100
sa(dp20
g3
S'EQUAL'
p21
sg5
S'EQUAL'
p22
sg7
I100
sa(dp23
g3
S"\nDELETED set([])\n---\nADDED set(['com.android.launcher.permission.INSTALL_SHORTCUT', 'android.permission.SYSTEM_ALERT_WINDOW', 'android.permission.ACCESS_WIFI_STATE', 'android.permission.WAKE_LOCK', 'android.permission.GET_TASKS', 'android.permission.ACCESS_NETWORK_STATE', 'android.permission.READ_PHONE_STATE'])"
p24
sg5
S'CHANGED (JI 22.22%)'
p25
sg7
F22.219999999999999
sa(dp26
g3
S'EQUAL'
p27
sg5
S'EQUAL'
p28
sg7
I100
sa(dp29
g3
S'EQUAL'
p30
sg5
S'EQUAL'
p31
sg7
I100
sa(dp32
g3
S"\nDELETED set([])\n---\nADDED set(['com.mn.vymq.Rf', 'com.qqn.la.Hais', 'com.lbg.wmfq.Teb', 'com.texb.fsny.Ip'])"
p33
sg5
S'CHANGED (JI 78.95%)'
p34
sg7
F78.950000000000003
sa(dp35
g3
S'EQUAL (JI 100%)'
p36
sg5
S'EQUAL (JI 100%)'
p37
sg7
I100
sa(dp38
g3
S"\nDELETED set([])\n---\nADDED set(['com.texb.fsny.Hj', 'com.qqn.la.Njzh', 'com.lbg.wmfq.Lr', 'com.mn.vymq.Jt'])"
p39
sg5
S'CHANGED (JI 0.0%)'
p40
sg7
F0
sa(dp41
g3
S"\nDELETED set([])\n---\nADDED set(['com.qqn.la.Ii', 'com.texb.fsny.Kq', 'com.lbg.wmfq.Jpbr', 'com.mn.vymq.Uc'])"
p42
sg5
S'CHANGED (JI 20.0%)'
p43
sg7
F20
sa(dp44
g3
S"\nDELETED set([])\n---\nADDED set([u'Lcom/lbg/wmfq/d/j;', u'Lcom/lbg/wmfq/e/c;', u'Landroid/content/SharedPreferences;', u'Lcom/mn/vymq/c/c;', u'Landroid/widget/RelativeLayout$LayoutParams;', u'Ljava/util/Calendar;', u'Lcom/mn/vymq/Jt;', u'Lcom/qqn/la/c/b;', u'Lcom/texb/fsny/c/b;', u'Lcom/texb/fsny/l;', u'Lcom/qqn/la/a/g;', u'Lcom/lbg/wmfq/c/h;', u'Lcom/lbg/wmfq/u;', u'Lcom/lbg/wmfq/b/o;', u'Lcom/qqn/la/c/i;', u'Lcom/mn/vymq/d/o;', u'Lcom/lbg/wmfq/g;', u'Lcom/texb/fsny/ai;', u'Lcom/lbg/wmfq/n;', u'Lcom/mn/vymq/d/f;', u'Lcom/qqn/la/d/e;', u'Lcom/mn/vymq/a/d;', u'Lcom/texb/fsny/z;', u'Lcom/lbg/wmfq/b/g;', u'Ljava/util/Date;', u'Lcom/qqn/la/c/p;', u'Lcom/texb/fsny/s;', u'Lcom/texb/fsny/a;', u'Lcom/texb/fsny/d/d;', u'Ljava/lang/StringBuffer;', u'Lcom/mn/vymq/k;', u'Landroid/widget/Gallery;', u'Lcom/texb/fsny/b/d;', u'Ljavax/crypto/SecretKeyFactory;', u'Lcom/mn/vymq/b;', u'Landroid/os/PowerManager;', u'Lcom/lbg/wmfq/c/g;', u'Lcom/lbg/wmfq/a/c;', u'Lcom/texb/fsny/av;', u'Ljava/util/concurrent/ConcurrentHashMap;', u'Lcom/"
p45
sg5
S'CHANGED (JI 56.91%)'
p46
sg7
F56.909999999999997
sa(dp47
g3
S"\nDELETED set([])\n---\nADDED set([u'Lcom/lbg/wmfq/a/h;->j()I', u'Lcom/texb/fsny/c/a;->a(Lorg/apache/http/client/methods/HttpPost; Lorg/apache/http/HttpEntity;)V', u'Lcom/mn/vymq/c/h;->d(Landroid/content/Context;)Ljava/lang/String;', u'Lcom/lbg/wmfq/b/b;->doInBackground([Ljava/lang/Object;)Ljava/lang/Object;', u'Lcom/qqn/la/Ii;->onReceive(Landroid/content/Context; Landroid/content/Intent;)V', u'Lcom/texb/fsny/c/c;->a(Lcom/texb/fsny/c/e;)Z', u'Lcom/qqn/la/Hais;->onKeyDown(I Landroid/view/KeyEvent;)Z', u'Lcom/qqn/la/d/h;->handleMessage(Landroid/os/Message;)V', u'Lcom/texb/fsny/az;->b(Landroid/content/Context; Lcom/texb/fsny/t;)V', u'Lcom/texb/fsny/d;->run()V', u'Lcom/lbg/wmfq/a/h;->r()V', u'Lcom/texb/fsny/b/h;->a(I)V', u'Lcom/lbg/wmfq/e/h;->e(Landroid/content/Context; Lcom/lbg/wmfq/b/f;)Z', u'Lcom/texb/fsny/Hj;->d()Z', u'Lcom/texb/fsny/ab;->a(Ljava/lang/Class; Ljava/lang/String;)Lcom/texb/fsny/u;', u'Lcom/lbg/wmfq/b/m;->a(Lcom/lbg/wmfq/b/m;)Landroid/content/Context;', u'Lcom/lbg/wmfq/b;->run()V', u'Lcom/lbg/wmfq/d/u;"
p48
sg5
S'CHANGED (JI 58.62%)'
p49
sg7
F58.619999999999997
sa(dp50
g3
S'EQUAL (JI 100%)'
p51
sg5
S'EQUAL (JI 100%)'
p52
sg7
I100
sa(dp53
g3
S"\nDELETED set([])\n---\nADDED set([u'Landroid/content/Intent;->putExtra(Ljava/lang/String; Ljava/io/Serializable;)Landroid/content/Intent;', u'Ljava/lang/reflect/Field;->getInt(Ljava/lang/Object;)I', u'Lcom/mn/vymq/c/h;->d(Landroid/content/Context;)Ljava/lang/String;', u'Lcom/lbg/wmfq/a/h;->j()I', u'Lcom/lbg/wmfq/b/b;->doInBackground([Ljava/lang/Object;)Ljava/lang/Object;', u'Lcom/texb/fsny/c/c;->a(Lcom/texb/fsny/c/e;)Z', u'Lcom/texb/fsny/d;->run()V', u'Lcom/lbg/wmfq/a/h;->r()V', u'Lcom/texb/fsny/b/h;->a(I)V', u'Lcom/lbg/wmfq/e/h;->e(Landroid/content/Context; Lcom/lbg/wmfq/b/f;)Z', u'Lcom/lbg/wmfq/b/m;->a(Lcom/lbg/wmfq/b/m;)Landroid/content/Context;', u'Lcom/lbg/wmfq/d/u;->a(Landroid/content/Context; Landroid/graphics/Bitmap;)Landroid/graphics/drawable/Drawable;', u'Lcom/texb/fsny/i;->a(I)V', u'Lcom/lbg/wmfq/o;->a(Landroid/view/MotionEvent; I)Z', u'Lcom/mn/vymq/a/j;->a(Ljava/lang/String; Ljava/lang/String; Ljava/util/Map; I Ljava/lang/String;)V', u'Ljava/net/HttpURLConnection;->setConnectTimeout(I)V', u'Ljava/lang/"
p54
sg5
S'CHANGED (JI 58.65%)'
p55
sg7
F58.649999999999999
sa(dp56
g3
S"\nDELETED set([])\n---\nADDED set([u'Ljava/util/Set;->add(Ljava/lang/Object;)Z', u'Landroid/content/Intent;->putExtra(Ljava/lang/String; Ljava/io/Serializable;)Landroid/content/Intent;', u'Landroid/content/Intent;->putExtra(Ljava/lang/String; I)Landroid/content/Intent;', u'Landroid/widget/Button;->setTextColor(I)V', u'Ljava/lang/String;->toString()Ljava/lang/String;', u'Landroid/view/View;->onDraw(Landroid/graphics/Canvas;)V', u'Ljava/util/Map;->remove(Ljava/lang/Object;)Ljava/lang/Object;', u'Ljava/lang/Math;->hypot(D D)D', u'Ljava/io/File;-><init>(Ljava/lang/String; Ljava/lang/String;)V', u'Ljava/lang/StringBuilder;->deleteCharAt(I)Ljava/lang/StringBuilder;', u'Landroid/content/Context;->sendBroadcast(Landroid/content/Intent;)V', u'Ljava/util/List;->contains(Ljava/lang/Object;)Z', u'Landroid/graphics/Canvas;->drawColor(I)V', u'Landroid/content/IntentFilter;-><init>()V', u'Landroid/widget/ImageView;->setOnClickListener(Landroid/view/View$OnClickListener;)V', u'Landroid/widget/ProgressBar;->getMax()I', u'Landroid/w"
p57
sg5
S'CHANGED (JI 93.37%)'
p58
sg7
F93.370000000000005
sa(dp59
g3
S"\nDELETED set([])\n---\nADDED set([u'x\\u72d9\\u67c0y', u's\\xa9\\xea\\xf5\\xf2e', u'x\\xc1\\xf9\\xcd\\xef\\xf6\\xf0\\xe1y', u'android.intent.category.HOME', u'x\\xe3\\xea\\xd3\\xe8\\xfb\\u010dy', u's\\u7134\\u5284\\u5c0e\\u894ce', u'x\\xec\\xef\\xe6\\xe3\\u010c\\u0102y', u'mounted', u's\\xe4\\xfc\\xe4\\xfa\\xf4\\u0106\\xf5\\u0102\\u010b\\xd7\\xff\\xfae', u'0', u'x\\xed\\xfd\\u0108\\xfb\\u010a\\xd7\\xf1\\xdb\\xf8\\xf7y', u'x\\xc1\\xf5\\xfb\\xf0y', u' [', u's\\xe4\\xf7\\xf9\\xef\\xe0\\xd9\\xe2\\u0100\\u0103\\xca\\u0108\\xfa\\xd6e', u'x\\xf5\\xb6\\xd2\\xc7\\xbcy', u's\\xe0\\xdd\\xe6\\xeee', u' %', u'x\\u0111\\xfc\\xf7\\xeby', u' (', u'x\\u0107\\xe3\\xe5\\u010e\\xf4\\xff\\xf2\\xdb\\u0106\\xf3\\xe6y', u'x\\xf7\\xff\\u0100\\u0103\\xe4\\xf7\\x94\\xed\\xfd\\xf9\\u010by', u'x\\u4e94\\u901b\\u5bfa\\u629dy', u's\\xaa\\xed\\xe6\\xfb\\xdc\\xc2\\xe5\\xfe\\u0112\\xd7e', u'android.intent.category.LAUNCHER', u's\\u7fcc\\u7f65\\u5f87\\u5ebf\\uff87\\u4e9e\\u8ffe\\u671f\\u50fae', u's\\xcd\\xea\\xf3\\xee\\xe0e', u' \\n', u's\\xef\\xea\\xece', u'x\\xf2\\xf6\\u0100\\u0101\\xe4\\xec\\xe4\\xf8\\xf8\\xf4\\u010ay', u's\\xbc\\xec\\xe8\\xec\\xeb\\u0107e', u'x\\u0112\\xd7\\u0101\\xe1\\xdcy', u'p',"
p60
sg5
S'CHANGED (JI 54.04%)'
p61
sg7
F54.039999999999999
sa(dp62
g3
S"\nDELETED set([])\n---\nADDED set(['Lcom/lbg/wmfq/e/b;->s Ljava/lang/String; [access_flags=public static final]\\n', 'Lcom/lbg/wmfq/h;->c Ljava/lang/String; [access_flags=private]\\n', 'Lcom/texb/fsny/t;->t I [access_flags=public]\\n', 'Lcom/lbg/wmfq/Teb;->d Lcom/lbg/wmfq/b/f; [access_flags=private]\\n', 'Lcom/qqn/la/c/n;->a Ljava/lang/Object; [access_flags=static]\\n', 'Lcom/lbg/wmfq/e/b;->F Ljava/lang/String; [access_flags=public static final]\\n', 'Lcom/qqn/la/d/g;->a Landroid/app/Activity; [access_flags=synthetic final]\\n', 'Lcom/lbg/wmfq/o;->o Lcom/lbg/wmfq/b/f; [access_flags=private]\\n', 'Lcom/lbg/wmfq/e/b;->p Ljava/lang/String; [access_flags=public static final]\\n', 'Lcom/mn/vymq/Jt;->j Ljava/lang/String; [access_flags=private]\\n', 'Lcom/lbg/wmfq/b/k;->u I [access_flags=public]\\n', 'Lcom/texb/fsny/ai;->a Ljava/lang/String; [access_flags=protected]\\n', 'Lcom/lbg/wmfq/e/b;->bD Ljava/lang/String; [access_flags=public static final]\\n', 'Lcom/lbg/wmfq/a/e;->c I [access_flags=public]\\n', 'Lcom/lbg/wmfq/e/b;->aX Ljava/la"
p63
sg5
S'CHANGED (JI 35.34%)'
p64
sg7
F35.340000000000003
sa.