(lp1
(dp2
S'detailed'
p3
S'EQUAL'
p4
sS'not_detailed'
p5
S'EQUAL'
p6
sS'score'
p7
I100
sa(dp8
g3
S'EQUAL'
p9
sg5
S'EQUAL'
p10
sg7
I100
sa(dp11
g3
S'EQUAL'
p12
sg5
S'EQUAL'
p13
sg7
I100
sa(dp14
g3
S'EQUAL'
p15
sg5
S'EQUAL'
p16
sg7
I100
sa(dp17
g3
S'EQUAL'
p18
sg5
S'EQUAL'
p19
sg7
I100
sa(dp20
g3
S'EQUAL'
p21
sg5
S'EQUAL'
p22
sg7
I100
sa(dp23
g3
S'EQUAL (JI 100%)'
p24
sg5
S'EQUAL (JI 100%)'
p25
sg7
I100
sa(dp26
g3
S'EQUAL'
p27
sg5
S'EQUAL'
p28
sg7
I100
sa(dp29
g3
S'EQUAL'
p30
sg5
S'EQUAL'
p31
sg7
I100
sa(dp32
g3
S'EQUAL (JI 100%)'
p33
sg5
S'EQUAL (JI 100%)'
p34
sg7
I100
sa(dp35
g3
S"\nDELETED set([u'jsr305_annotations/v0_r47/V0_r47.gwt.xml', u'META-INF/CERT.RSA', u'jsr305_annotations/Jsr305_annotations.gwt.xml', u'META-INF/CERT.SF'])\n---\nADDED set([u'META-INF/0561DB4C.RSA', u'META-INF/0561DB4C.SF'])"
p36
sg5
S'CHANGED (JI 97.79%)'
p37
sg7
F97.790000000000006
sa(dp38
g3
S'EQUAL (JI 100%)'
p39
sg5
S'EQUAL (JI 100%)'
p40
sg7
I100
sa(dp41
g3
S'EQUAL (JI 100%)'
p42
sg5
S'EQUAL (JI 100%)'
p43
sg7
I100
sa(dp44
g3
S"\nDELETED set([u'Landroid/support/v4/widget/SlidingPaneLayout$LayoutParams;', u'Lcom/google/ads/util/i$d;', u'Lcom/google/ads/internal/c$e;', u'Lcom/google/ads/m$a;', u'Lorg/apache/http/ProtocolVersion;', u'Landroid/support/v4/view/ViewGroupCompatHC;', u'Landroid/support/v4/content/IntentCompat$IntentCompatImplHC;', u'Lcom/google/ads/util/g;', u'Lcom/google/ads/internal/f$1;', u'Landroid/support/v4/view/KeyEventCompatEclair;', u'Lcom/google/ads/af;', u'Ljava/util/concurrent/TimeUnit;', u'Landroid/support/v4/net/ConnectivityManagerCompatGingerbread;', u'Landroid/support/v4/app/ActionBarDrawerToggleHoneycomb;', u'Landroid/support/v4/widget/ScrollerCompat;', u'Lcom/google/ads/searchads/SearchAdRequest$BorderType;', u'Lcom/google/ads/internal/AdWebView$1;', u'Lcom/google/android/apps/analytics/NetworkDispatcher$DispatcherThread;', u'Landroid/support/v4/net/TrafficStatsCompat;', u'Lcom/google/ads/internal/k$a$1;', u'Lcom/google/ads/w;', u'Ljavax/crypto/spec/IvParameterSpec;', u'Landroid/support/v4/vi\n---\nADDED set([u'Lcom/google/analytics/tracking/android/Transaction$1;', u'Ljava/text/DecimalFormatSymbols;', u'Lcom/google/analytics/tracking/android/GoogleAnalytics;', u'Lcom/google/analytics/tracking/android/EasyTracker;', u'[Lcom/viewpagerindicator/TitlePageIndicator$LinePosition;', u'Lcom/google/analytics/tracking/android/Transaction;', u'Lcom/google/analytics/tracking/android/Analytics$AppOptOutCallback;', u'Ljava/text/DecimalFormat;', u'Lcom/google/analytics/tracking/android/Utils;', u'Lcom/google/analytics/tracking/android/Tracker;', u'Lcom/google/analytics/tracking/android/Transaction$Builder;', u'Ljava/io/ObjectOutputStream;', u'Lcom/google/analytics/tracking/android/ExceptionParser;', u'Lcom/viewpagerindicator/LinePageIndicator$1;', u'Landroid/support/v4/app/HCSparseArray;', u'Lcom/viewpagerindicator/TitlePageIndicator$1;', u'[Lorg/montrealtransit/android/data/StmInfoStatus$Status;', u'Lcom/google/analytics/tracking/android/Transaction$Item$Builder;', u'Lcom/google/analytics/tracking/"
p45
sg5
S'CHANGED (JI 65.92%)'
p46
sg7
F65.920000000000002
sa(dp47
g3
S"\nDELETED set([u'Landroid/support/v4/app/ActivityOptionsCompat$ActivityOptionsImplJB;->update(Landroid/support/v4/app/ActivityOptionsCompat;)V', u'Landroid/support/v4/widget/ViewDragHelper;->processTouchEvent(Landroid/view/MotionEvent;)V', u'Landroid/support/v4/app/NavUtils$NavUtilsImplJB;->getParentActivityName(Landroid/content/Context; Landroid/content/pm/ActivityInfo;)Ljava/lang/String;', u'Lcom/google/android/apps/analytics/Event;->setVisits(I)V', u'Landroid/support/v4/widget/SlidingPaneLayout$AccessibilityDelegate;->filter(Landroid/view/View;)Z', u'Lorg/montrealtransit/android/activity/v4/BusTabClosestStopsFragment;->access$4(Lorg/montrealtransit/android/activity/v4/BusTabClosestStopsFragment;)Landroid/app/Activity;', u'Lorg/montrealtransit/android/activity/SubwayLineInfo;->access$10(Lorg/montrealtransit/android/activity/SubwayLineInfo;)V', u'Lcom/google/ads/util/b;->c(Ljava/lang/String;)V', u'Landroid/support/v4/view/accessibility/AccessibilityNodeInfoCompat$AccessibilityNodeInfoJellybeanI\n---\nADDED set([u'Lcom/google/analytics/tracking/android/Tracker;->trackTransaction(Lcom/google/analytics/tracking/android/Transaction;)V', u'Lorg/montrealtransit/android/activity/v4/SubwayLineDirectionFragment;->access$900(Lorg/montrealtransit/android/activity/v4/SubwayLineDirectionFragment;)I', u'Lorg/montrealtransit/android/activity/BusStopInfo;->access$1000(Lorg/montrealtransit/android/activity/BusStopInfo; Ljava/lang/String;)Ljava/lang/String;', u'Lorg/montrealtransit/android/activity/BikeTab;->access$102(Lorg/montrealtransit/android/activity/BikeTab; Ljava/util/List;)Ljava/util/List;', u'Lcom/viewpagerindicator/UnderlinePageIndicator;->access$200(Lcom/viewpagerindicator/UnderlinePageIndicator;)I', u'Landroid/support/v4/app/FragmentPagerAdapter;->makeFragmentName(I I)Ljava/lang/String;', u'Lorg/montrealtransit/android/activity/v4/BusLineDirectionFragment;->access$1100(Lorg/montrealtransit/android/activity/v4/BusLineDirectionFragment;)V', u'Lorg/montrealtransit/android/activity/FavListTab;->a"
p48
sg5
S'CHANGED (JI 55.14%)'
p49
sg7
F55.140000000000001
sa(dp50
g3
S"\nDELETED set([u'Lcom/google/android/apps/analytics/Transaction;-><init>(Lcom/google/android/apps/analytics/Transaction$Builder;)V', u'Lorg/montrealtransit/android/activity/BusStopInfo;->access$4(Lorg/montrealtransit/android/activity/BusStopInfo;)I', u'Landroid/support/v4/view/accessibility/AccessibilityRecordCompat$AccessibilityRecordImpl;->setMaxScrollY(Ljava/lang/Object; I)V', u'Lorg/montrealtransit/android/activity/v4/BusTabClosestStopsFragment;->access$4(Lorg/montrealtransit/android/activity/v4/BusTabClosestStopsFragment;)Landroid/app/Activity;', u'Lorg/montrealtransit/android/activity/SubwayLineInfo;->access$10(Lorg/montrealtransit/android/activity/SubwayLineInfo;)V', u'Landroid/support/v4/view/ViewCompat$ViewCompatImpl;->performAccessibilityAction(Landroid/view/View; I Landroid/os/Bundle;)Z', u'Lcom/google/ads/mediation/customevent/CustomEventAdapter;->destroy()V', u'Lorg/montrealtransit/android/activity/BusLineInfo;->access$15(Lorg/montrealtransit/android/activity/BusLineInfo;)V', u'Lcom\n---\nADDED set([u'Lorg/montrealtransit/android/activity/v4/SubwayLineDirectionFragment;->access$900(Lorg/montrealtransit/android/activity/v4/SubwayLineDirectionFragment;)I', u'Lorg/montrealtransit/android/activity/BusStopInfo;->access$1000(Lorg/montrealtransit/android/activity/BusStopInfo; Ljava/lang/String;)Ljava/lang/String;', u'Lorg/montrealtransit/android/activity/BikeTab;->access$102(Lorg/montrealtransit/android/activity/BikeTab; Ljava/util/List;)Ljava/util/List;', u'Lcom/viewpagerindicator/UnderlinePageIndicator;->access$200(Lcom/viewpagerindicator/UnderlinePageIndicator;)I', u'Landroid/support/v4/app/FragmentPagerAdapter;->makeFragmentName(I I)Ljava/lang/String;', u'Lorg/montrealtransit/android/activity/v4/BusLineDirectionFragment;->access$1100(Lorg/montrealtransit/android/activity/v4/BusLineDirectionFragment;)V', u'Lorg/montrealtransit/android/activity/FavListTab;->access$600(Lorg/montrealtransit/android/activity/FavListTab;)Ljava/util/List;', u'Lorg/montrealtransit/android/activity/BikeS"
p51
sg5
S'CHANGED (JI 78.1%)'
p52
sg7
F78.099999999999994
sa(dp53
g3
S"\nDELETED set([u'Landroid/support/v4/app/ActivityOptionsCompat$ActivityOptionsImplJB;->update(Landroid/support/v4/app/ActivityOptionsCompat;)V', u'Landroid/webkit/WebView;-><init>(Landroid/content/Context;)V', u'Landroid/support/v4/widget/ViewDragHelper;->processTouchEvent(Landroid/view/MotionEvent;)V', u'Lorg/montrealtransit/android/activity/v4/BusTabClosestStopsFragment;->access$4(Lorg/montrealtransit/android/activity/v4/BusTabClosestStopsFragment;)Landroid/app/Activity;', u'Ldalvik/system/DexClassLoader;->loadClass(Ljava/lang/String;)Ljava/lang/Class;', u'Landroid/view/View;->getResources()Landroid/content/res/Resources;', u'Landroid/support/v4/view/AccessibilityDelegateCompat$AccessibilityDelegateJellyBeanImpl;->newAccessiblityDelegateBridge(Landroid/support/v4/view/AccessibilityDelegateCompat;)Ljava/lang/Object;', u'Landroid/webkit/WebView;->loadDataWithBaseURL(Ljava/lang/String; Ljava/lang/String; Ljava/lang/String; Ljava/lang/String; Ljava/lang/String;)V', u'Lcom/google/ads/AdView;->getHe\n---\nADDED set([u'Lcom/google/analytics/tracking/android/Tracker;->trackTransaction(Lcom/google/analytics/tracking/android/Transaction;)V', u'Lorg/montrealtransit/android/activity/v4/SubwayLineDirectionFragment;->access$900(Lorg/montrealtransit/android/activity/v4/SubwayLineDirectionFragment;)I', u'Lorg/montrealtransit/android/activity/BusStopInfo;->access$1000(Lorg/montrealtransit/android/activity/BusStopInfo; Ljava/lang/String;)Ljava/lang/String;', u'Lorg/montrealtransit/android/activity/BikeTab;->access$102(Lorg/montrealtransit/android/activity/BikeTab; Ljava/util/List;)Ljava/util/List;', u'Lcom/viewpagerindicator/UnderlinePageIndicator;->access$200(Lcom/viewpagerindicator/UnderlinePageIndicator;)I', u'Landroid/support/v4/app/FragmentPagerAdapter;->makeFragmentName(I I)Ljava/lang/String;', u'Lorg/montrealtransit/android/activity/v4/BusLineDirectionFragment;->access$1100(Lorg/montrealtransit/android/activity/v4/BusLineDirectionFragment;)V', u'Lorg/montrealtransit/android/activity/FavListTab;->a"
p54
sg5
S'CHANGED (JI 58.27%)'
p55
sg7
F58.270000000000003
sa(dp56
g3
S"\nDELETED set([u'Lcom/google/android/apps/analytics/Transaction;-><init>(Lcom/google/android/apps/analytics/Transaction$Builder;)V', u'Landroid/view/View;->setLayerPaint(Landroid/graphics/Paint;)V', u'Lorg/montrealtransit/android/activity/v4/BusTabClosestStopsFragment;->access$4(Lorg/montrealtransit/android/activity/v4/BusTabClosestStopsFragment;)Landroid/app/Activity;', u'Lorg/montrealtransit/android/activity/SubwayLineInfo;->access$10(Lorg/montrealtransit/android/activity/SubwayLineInfo;)V', u'Landroid/support/v4/view/ViewCompat$ViewCompatImpl;->performAccessibilityAction(Landroid/view/View; I Landroid/os/Bundle;)Z', u'Lcom/google/android/apps/analytics/GoogleAnalyticsTracker;->getVisitorCustomVar(I)Ljava/lang/String;', u'Lorg/montrealtransit/android/activity/BusStopInfo;->access$21(Lorg/montrealtransit/android/activity/BusStopInfo;)V', u'Landroid/view/View;->getResources()Landroid/content/res/Resources;', u'Landroid/os/Handler;->sendEmptyMessageDelayed(I J)Z', u'Landroid/support/v4/app/TaskSt\n---\nADDED set([u'Lorg/montrealtransit/android/activity/v4/SubwayLineDirectionFragment;->access$900(Lorg/montrealtransit/android/activity/v4/SubwayLineDirectionFragment;)I', u'Lorg/montrealtransit/android/activity/BusStopInfo;->access$1000(Lorg/montrealtransit/android/activity/BusStopInfo; Ljava/lang/String;)Ljava/lang/String;', u'Lorg/montrealtransit/android/activity/BikeTab;->access$102(Lorg/montrealtransit/android/activity/BikeTab; Ljava/util/List;)Ljava/util/List;', u'Lcom/viewpagerindicator/UnderlinePageIndicator;->access$200(Lcom/viewpagerindicator/UnderlinePageIndicator;)I', u'Landroid/support/v4/app/FragmentPagerAdapter;->makeFragmentName(I I)Ljava/lang/String;', u'Lorg/montrealtransit/android/activity/v4/BusLineDirectionFragment;->access$1100(Lorg/montrealtransit/android/activity/v4/BusLineDirectionFragment;)V', u'Lorg/montrealtransit/android/activity/FavListTab;->access$600(Lorg/montrealtransit/android/activity/FavListTab;)Ljava/util/List;', u'Lorg/montrealtransit/android/activity/BikeS"
p57
sg5
S'CHANGED (JI 78.6%)'
p58
sg7
F78.599999999999994
sa(dp59
g3
S'\nDELETED set([u\'gw\', u\'disableNativeScroll\', u\'isLoadAdTaskSuccessful() called when isLoadAdTaskDone() is false.\', u"{\'version\': \'afma-sdk-a-v6.4.1\'}", u\'Cannot show interstitial because it is not loaded and ready.\', u\'/video\', u\'onAdClicked()\', u\'Re-enabling hardware acceleration for an activation overlay after reading constants.\', u\'No "action" parameter in a video gmsg.\', u\' did not call through to super.onViewStateRestored()\', u\'android.permission.INTERNET\', u\'failWrite: Got exception:\', u\'bad base-64\', u\'Unable to ping the URL: \', u\'spamSignals\', u\'GoogleAdMobDoritosLife\', u\' at index \', u\'afma_notify_dt\', u\'IAB_WIDE_SKYSCRAPER\', u\'tx\', u"\'. Expected something starting with \'application/json\'. Aborting mediation.", u\'bad_ad_report_path\', u\'screen_height\', u\'interstitial_mb\', u\'mraid_interstitial_path\', u\'mad_hac\', u\'Host\', u\'drt_include\', u\') ad to show interstitial: \', u\'Disabling hardware acceleration on collapsing MRAID WebView.\', u\'http://e.admob.com/imp?ad_loc=@gw_adlocid@&qdata=@gw_q\n---\nADDED set([u\'exceptionThreadName\', u\'tran\', u\'campaign\', u\'appName\', u\'BSE \', u\' for fragment \', u\' hgrav: \', u\'timingValue\', u\'itemQuantity\', u\' fragment=\', u\' set base fragment #\', u\'restoreAllState: adding bse #\', u\'Unknown Exception\', u\'event\', u\'exDescription\', u\'itemCode\', u\'exFatal\', u\'appInstallerId\', u\'rawException\', u\'currencyCode\', u\'appVersion\', u\': (null)\', u\'0.######\', u\'trackingId\', u\'hitType\', u\'timingVar\', u\'transactionShipping\', u\'transactionAffiliation\', u\'restoreAllState: making added #\', u\'transactionTotal\', u\'socialAction\', u\'eventValue\', u\'eventCategory\', u\'12345678\', u\'itemPrice\', u\'restoreAllState: adding avail #\', u\'socialNetwork\', u\' mContainerId#=\', u\'appId\', u\'timing\', u\'transactionTax\', u\' vgrav: \', u\'socialTarget\', u\'gravity: \', u\'exception\', u\'transactionId\', u\'restoreAllState: adding #\', u\'BackStackEntry\', u\'timingCategory\', u\'timingLabel\', u\'eventAction\', u\'itemCategory\', u\'item\', u\'anonymizeIp\', u\'social\', u\'eventLabel\', u\'sampleRate\', u\'itemName\', u\'appvie'
p60
sg5
S'CHANGED (JI 57.15%)'
p61
sg7
F57.149999999999999
sa(dp62
g3
S"\nDELETED set(['Lcom/google/ads/internal/g;->l Z [access_flags=private]\\n', 'Lcom/google/ads/al;->a Ljava/lang/String; [access_flags=private]\\n', 'Lcom/google/ads/internal/g;->a Ljava/util/LinkedList; [access_flags=private final]\\n', 'Lcom/google/ads/e;->c Ljava/lang/Object; [access_flags=private final]\\n', 'Lcom/google/ads/ag$i;->a Lcom/google/ads/ag; [access_flags=synthetic final]\\n', 'Lcom/google/ads/as;->a Landroid/net/Uri; [access_flags=public static final]\\n', 'Lcom/google/ads/ag;->bB I [access_flags=0x0]\\n', 'Lcom/google/ads/util/g$a$4;->a Landroid/webkit/JsPromptResult; [access_flags=synthetic final]\\n', 'Lcom/google/android/apps/analytics/NetworkDispatcher;->googleAnalyticsHost Lorg/apache/http/HttpHost; [access_flags=private final]\\n', 'Landroid/support/v4/app/LoaderManagerImpl;->mWho Ljava/lang/String; [access_flags=final]\\n', 'Lcom/google/ads/internal/i;->i Z [access_flags=private]\\n', 'Lcom/google/ads/ag;->k I [access_flags=0x0]\\n', 'Landroid/support/v4/util/AtomicFile;->mBaseName L\n---\nADDED set(['Lcom/google/analytics/tracking/android/Transaction$Builder;->currencyCode Ljava/lang/String; [access_flags=private]\\n', 'Lorg/montrealtransit/android/data/StmInfoStatus$Status;->$VALUES [Lorg/montrealtransit/android/data/StmInfoStatus$Status; [access_flags=private synthetic static final]\\n', 'Lorg/montrealtransit/android/activity/FavListTab$7;->val$subwayStation Lorg/montrealtransit/android/provider/StmStore$SubwayStation; [access_flags=synthetic final]\\n', 'Lorg/montrealtransit/android/activity/SubwayStationInfo$11$2;->val$busStop Lorg/montrealtransit/android/provider/StmStore$BusStop; [access_flags=synthetic final]\\n', 'Lorg/montrealtransit/android/activity/FavListTab$4;->val$busStop Lorg/montrealtransit/android/provider/StmStore$BusStop; [access_flags=synthetic final]\\n', 'Lorg/montrealtransit/android/activity/BusStopInfo$11;->val$lineNumber Ljava/lang/String; [access_flags=synthetic final]\\n', 'Lcom/google/analytics/tracking/android/GoogleAnalytics;->defaultTracker Lcom/googl"
p63
sg5
S'CHANGED (JI 51.97%)'
p64
sg7
F51.969999999999999
sa.