(lp1
(dp2
S'detailed'
p3
S'DIFFERENT: 33!=1'
p4
sS'not_detailed'
p5
S'CHANGED'
p6
sS'score'
p7
I0
sa(dp8
g3
S'DIFFERENT: 1.8.4!=1.0'
p9
sg5
S'CHANGED'
p10
sg7
I0
sa(dp11
g3
S'DIFFERENT: 7!=3'
p12
sg5
S'CHANGED'
p13
sg7
I0
sa(dp14
g3
S'EQUAL'
p15
sg5
S'EQUAL'
p16
sg7
I100
sa(dp17
g3
S'EQUAL'
p18
sg5
S'EQUAL'
p19
sg7
I100
sa(dp20
g3
S'DIFFERENT: 7!=3'
p21
sg5
S'CHANGED'
p22
sg7
I0
sa(dp23
g3
S"\nDELETED set(['android.permission.WRITE_EXTERNAL_STORAGE'])\n---\nADDED set(['android.permission.VIBRATE', 'android.permission.READ_PHONE_STATE', 'android.permission.ACCESS_COARSE_LOCATION'])"
p24
sg5
S'CHANGED (JI 20.0%)'
p25
sg7
F20
sa(dp26
g3
S'DIFFERENT: com.textualindices.refractionlite!=com.dseffects.VirtualDog'
p27
sg5
S'CHANGED'
p28
sg7
I0
sa(dp29
g3
S'DIFFERENT: Refraction Lite!=VirtualDog'
p30
sg5
S'CHANGED'
p31
sg7
I0
sa(dp32
g3
S"\nDELETED set(['com.textualindices.refractionlite..LevelActivity', 'com.textualindices.refractionlite..Menu', 'com.textualindices.refractionlite..SolutionsOnlineActivity', 'com.textualindices.refractionlite..SolutionsActivity', 'com.textualindices.refractionlite..SolutionsDownloadsActivity', 'com.textualindices.refractionlite..Options', 'com.textualindices.refractionlite..SectorActivity', 'com.textualindices.refractionlite..Credits', 'com.textualindices.refractionlite..SolutionsLocalActivity', 'com.textualindices.refractionlite..Help', 'com.textualindices.refractionlite..LevelSelect'])\n---\nADDED set(['com.dseffects.VirtualDog..VirtualDog'])"
p33
sg5
S'CHANGED (JI 0.0%)'
p34
sg7
F0
sa(dp35
g3
S"\nDELETED set([u'assets/tutorials/level41.1.png', u'res/drawable-nodpi/completed_lvl7.png', u'res/drawable-nodpi/yellow_glow.png', u'res/drawable-nodpi/toggle_txt.png', u'res/drawable-nodpi/green_switch_off.png', u'res/drawable-nodpi/emitter_purple.png', u'res/drawable-nodpi/delete_txt.png', u'res/drawable-nodpi/wormhole_ring.png', u'res/drawable-nodpi/orange_laser.png', u'res/drawable-nodpi/chk_green_lit.png', u'res/drawable-nodpi/tealtext_off.png', u'res/drawable-nodpi/arrowtealselected.png', u'res/drawable-nodpi/level05.png', u'res/layout/solutions_online.xml', u'assets/tutorials/level21.1.png', u'res/drawable-nodpi/red_switch_on.png', u'res/drawable-nodpi/chk_yellow_unlit.png', u'res/drawable-nodpi/chk_yellow_lit.png', u'res/drawable-nodpi/chk_teal_unlit.png', u'res/drawable-nodpi/arrowblueselected.png', u'res/drawable-nodpi/sector6s.png', u'res/drawable-nodpi/green_glow.png', u'res/drawable-nodpi/level14.png', u'res/drawable-nodpi/purple_laser_selected.png', u'assets/tutorials/level21.3.png\n---\nADDED set(['assets/s5.jpg', 'assets/f3.png', 'assets/f1.png', 'assets/VirtualDog.html', 'assets/f8.png', 'assets/f9.png', 'assets/f16.png', 'assets/bg.jpg', 'assets/f14.png', 'assets/f15.png', 'assets/s0.jpg', 'assets/no.gif', 'assets/f11.png', 'assets/f6.png', 'assets/f7.png', 'assets/f5.png', 'assets/s6.jpg', 'assets/f0.png', 'assets/s1.jpg', 'assets/p.png', 'assets/dse.jpg', 'assets/f12.png', 'assets/ar.gif', 'res/drawable/icon.png', 'assets/i0.gif', 'assets/al.gif', 'assets/f18.png', 'assets/f19.png', 'assets/f17.png', 'assets/f13.png', 'assets/g.png', 'assets/s2.jpg', 'assets/f4.png', 'assets/up.gif', 'assets/VirtualDog1.jpg', 'assets/s7.jpg', 'assets/down.gif', 'assets/s3.jpg', 'assets/go.gif', 'assets/f2.png', 'res/drawable/ad1.jpg', 'assets/i5.gif', 'assets/s4.jpg', 'assets/i1.gif', 'assets/yes.gif', 'assets/paddle.png', 'assets/back.gif', 'assets/af.gif', 'assets/f20.png', 'assets/s8.jpg', 'assets/i2.gif', 'assets/i3.gif', 'assets/i4.gif', 'assets/submit.gif', 'assets/f10.png'])"
p36
sg5
S'CHANGED (JI 2.01%)'
p37
sg7
F2.0099999999999998
sa(dp38
g3
S'EQUAL (JI 100%)'
p39
sg5
S'EQUAL (JI 100%)'
p40
sg7
I100
sa(dp41
g3
S'EQUAL (JI 100%)'
p42
sg5
S'EQUAL (JI 100%)'
p43
sg7
I100
sa(dp44
g3
S"\nDELETED set([u'Ljava/io/FileNotFoundException;', u'Landroid/widget/ImageView;', u'Landroid/content/SharedPreferences;', u'Landroid/text/InputFilter$LengthFilter;', u'Lcom/textualindices/refractionlite/SolutionsActivity$1;', u'Lcom/textualindices/refractionlite/LevelView$1;', u'Ljava/lang/Byte;', u'Lcom/textualindices/refractionlite/SolutionsActivity;', u'Landroid/widget/RelativeLayout$LayoutParams;', u'Ljava/util/Calendar;', u'Lcom/textualindices/refractionlite/SolutionsOnlineActivity$OnlineAdapter$1;', u'Lcom/textualindices/refractionlite/Help;', u'Lorg/apache/http/client/methods/HttpPost;', u'Lcom/textualindices/refractionlite/LevelSelectGridView$Listener;', u'Landroid/widget/BaseAdapter;', u'Ljava/lang/Runnable;', u'Lcom/textualindices/refractionlite/SoundManager;', u'Landroid/view/MenuInflater;', u'Lcom/textualindices/refractionlite/Menu;', u'Landroid/view/animation/ScaleAnimation;', u'Lorg/apache/http/message/BasicNameValuePair;', u'Lcom/textualindices/refractionlite/Help$1;', u'Ljava/io/\n---\nADDED set([u'Ljava/util/LinkedList;', u'Landroid/webkit/JsResult;', u'Ljava/util/Timer;', u'Ljava/io/OutputStreamWriter;', u'Lcom/dseffects/VirtualDog/VirtualDog$MyWebChromeClient;', u'Landroid/graphics/Camera;', u'Lcom/dseffects/VirtualDog/R$layout;', u'Lcom/dseffects/VirtualDog/R$styleable;', u'[Lcom/admob/android/ads/AdManager$Gender;', u'Landroid/view/View$MeasureSpec;', u'Landroid/view/animation/DecelerateInterpolator;', u'Landroid/widget/ImageButton;', u'Lcom/admob/android/ads/AdManager$Gender;', u'Landroid/os/Vibrator;', u'Lcom/dseffects/VirtualDog/R;', u'Lcom/admob/android/ads/AdRequester;', u'Lcom/dseffects/VirtualDog/VirtualDog;', u'Landroid/location/Location;', u'Lcom/dseffects/VirtualDog/R$drawable;', u'Lcom/dseffects/VirtualDog/R$id;', u'Lcom/admob/android/ads/AdView$3;', u'Lcom/admob/android/ads/AdView$SwapViews$1;', u'Lcom/admob/android/ads/AdContainer;', u'Landroid/view/animation/Animation;', u'Ljava/net/URLEncoder;', u'Ljava/io/BufferedWriter;', u'Landroid/view/animation/Tra"
p45
sg5
S'CHANGED (JI 16.72%)'
p46
sg7
F16.719999999999999
sa(dp47
g3
S"\nDELETED set([u'Lcom/textualindices/refractionlite/LevelActivity;->onKeyDown(I Landroid/view/KeyEvent;)Z', u'Lcom/textualindices/refractionlite/LevelActivity;->showAd()V', u'Lcom/Localytics/android/LocalyticsSession;->close()V', u'Lcom/aduru/sdk/AdView;->c()Landroid/os/Handler;', u'Lcom/textualindices/refractionlite/LevelView;->laserSearch(Lcom/textualindices/refractionlite/CollisionObject; Z)V', u'Lcom/aduru/sdk/Advert;->setAppIcon(Ljava/lang/String;)V', u'Lcom/textualindices/refractionlite/SoundManager;->getInstance()Lcom/textualindices/refractionlite/SoundManager;', u'Lcom/textualindices/refractionlite/Star;-><init>(I D)V', u'Lcom/textualindices/refractionlite/LevelView;->newCheckpoint(I I I)Lcom/textualindices/refractionlite/CollisionObject;', u'Lcom/textualindices/refractionlite/LevelView;->killTemp()V', u'Lcom/textualindices/refractionlite/ListPreferenceMultiSelect;->onPrepareDialogBuilder(Landroid/app/AlertDialog$Builder;)V', u'Lcom/Localytics/android/UploaderThread$2;->accept(Ljava/io/F\n---\nADDED set([u'Lcom/admob/android/ads/AdRequester;-><init>()V', u'Lcom/dseffects/VirtualDog/R$id;-><init>()V', u'Lcom/admob/android/ads/Ad;->getIcon()Landroid/graphics/Bitmap;', u'Lcom/admob/android/ads/AdView;->setRequestInterval(I)V', u'Lcom/admob/android/ads/AdContainer;->getAd()Lcom/admob/android/ads/Ad;', u'Lcom/dseffects/VirtualDog/R$attr;-><init>()V', u'Lcom/admob/android/ads/AdContainer;->drawFocusRing(Landroid/graphics/Canvas; Landroid/graphics/Rect;)V', u'Lcom/admob/android/ads/AdManager;->setBirthday(Ljava/util/GregorianCalendar;)V', u'Lcom/admob/android/ads/AdManager;->getUserId(Landroid/content/Context;)Ljava/lang/String;', u'Lcom/admob/android/ads/AdRequester;->requestAd(Landroid/content/Context; Ljava/lang/String; Ljava/lang/String;)Lcom/admob/android/ads/Ad;', u'Lcom/dseffects/VirtualDog/R$string;-><init>()V', u'Lcom/admob/android/ads/AdView;->isGoneWithoutAd()Z', u'Lcom/admob/android/ads/AdContainer;->click()V', u'Lcom/admob/android/ads/AdView$3;->onAnimationEnd(Landroid/view/"
p48
sg5
S'CHANGED (JI 0.0%)'
p49
sg7
F0
sa(dp50
g3
S'EQUAL (JI 100%)'
p51
sg5
S'EQUAL (JI 100%)'
p52
sg7
I100
sa(dp53
g3
S"\nDELETED set([u'Ljava/util/Random;-><init>()V', u'Ljava/io/OutputStream;->write([B)V', u'Landroid/content/Intent;->putExtra(Ljava/lang/String; I)Landroid/content/Intent;', u'Landroid/content/Context;->getContentResolver()Landroid/content/ContentResolver;', u'Lcom/textualindices/refractionlite/CalcTools;->inBetween(I I I)Z', u'Lcom/textualindices/refractionlite/Star;-><init>(I D)V', u'Landroid/webkit/WebView;-><init>(Landroid/content/Context;)V', u'Lcom/textualindices/refractionlite/SolutionsLocalActivity$ExampleCursorAdapter;->notifyDataSetChanged()V', u'Lcom/textualindices/refractionlite/DBAdapter$DatabaseHelper;->onCreate(Landroid/database/sqlite/SQLiteDatabase;)V', u'Landroid/view/animation/ScaleAnimation;-><init>(F F F F F F)V', u'Lcom/aduru/sdk/a;->postDelayed(Ljava/lang/Runnable; J)Z', u'Landroid/widget/FrameLayout;->addView(Landroid/view/View; Landroid/view/ViewGroup$LayoutParams;)V', u'Lcom/textualindices/refractionlite/Menu;->access$2(Lcom/textualindices/refractionlite/Menu;)I', u'Lcom\n---\nADDED set([u'Lcom/admob/android/ads/AdView;->startAnimation(Landroid/view/animation/Animation;)V', u'Lcom/admob/android/ads/AdView;->invalidate()V', u'Lcom/admob/android/ads/AdView;->setRequestInterval(I)V', u'Lcom/admob/android/ads/AdContainer;->getAd()Lcom/admob/android/ads/Ad;', u'Landroid/graphics/Paint;->ascent()F', u'Lcom/admob/android/ads/Ad;->getText()Ljava/lang/String;', u'Lcom/dseffects/VirtualDog/dsGap;->updatePetData(Ljava/lang/String; J J J J J J J J J J J J J)V', u'Lcom/admob/android/ads/AdView$1$1;-><init>(Lcom/admob/android/ads/AdView$1; Lcom/admob/android/ads/AdContainer; I Z)V', u'Ljava/util/Date;->toString()Ljava/lang/String;', u'Lcom/dseffects/VirtualDog/R$id;-><init>()V', u'Lcom/admob/android/ads/AdContainer;->getHeight()I', u'Lcom/admob/android/ads/AdView;->isGoneWithoutAd()Z', u'Lcom/admob/android/ads/AdContainer;->click()V', u'Lcom/admob/android/ads/AdManager;->access$000()Landroid/location/Location;', u'Landroid/location/LocationManager;->getBestProvider(Landroid/loc"
p54
sg5
S'CHANGED (JI 8.37%)'
p55
sg7
F8.3699999999999992
sa(dp56
g3
S"\nDELETED set([u'Ljava/math/BigInteger;->toString(I)Ljava/lang/String;', u'Ljava/lang/StringBuffer;->append([C I I)Ljava/lang/StringBuffer;', u'Landroid/app/Activity;->onCreateContextMenu(Landroid/view/ContextMenu; Landroid/view/View; Landroid/view/ContextMenu$ContextMenuInfo;)V', u'Landroid/content/Intent;->putExtras(Landroid/os/Bundle;)Landroid/content/Intent;', u'Landroid/content/Intent;->putExtra(Ljava/lang/String; I)Landroid/content/Intent;', u'Landroid/content/Context;->getContentResolver()Landroid/content/ContentResolver;', u'Landroid/graphics/Color;->rgb(I I I)I', u'Landroid/webkit/WebView;-><init>(Landroid/content/Context;)V', u'Ljava/lang/String;->toString()Ljava/lang/String;', u'Landroid/graphics/Typeface;->createFromAsset(Landroid/content/res/AssetManager; Ljava/lang/String;)Landroid/graphics/Typeface;', u'Landroid/database/Cursor;->getColumnIndex(Ljava/lang/String;)I', u'Landroid/content/Intent;->setClass(Landroid/content/Context; Ljava/lang/Class;)Landroid/content/Intent;', u'Landr\n---\nADDED set([u'Landroid/view/View;-><init>(Landroid/content/Context; Landroid/util/AttributeSet; I)V', u'Landroid/graphics/Paint;->ascent()F', u'Landroid/util/AttributeSet;->getAttributeIntValue(Ljava/lang/String; Ljava/lang/String; I)I', u'Ljava/net/HttpURLConnection;->getHeaderField(Ljava/lang/String;)Ljava/lang/String;', u'Landroid/view/View;->setPressed(Z)V', u'Ljava/util/Date;->toString()Ljava/lang/String;', u'Landroid/telephony/TelephonyManager;->getDeviceId()Ljava/lang/String;', u'Landroid/util/AttributeSet;->getAttributeBooleanValue(Ljava/lang/String; Ljava/lang/String; Z)Z', u'Ljava/lang/String;->indexOf(Ljava/lang/String; I)I', u'Landroid/graphics/Matrix;->preTranslate(F F)Z', u'Landroid/util/Log;->isLoggable(Ljava/lang/String; I)Z', u'Landroid/database/Cursor;->isFirst()Z', u'Ljava/security/MessageDigest;->update([B I I)V', u'Ljava/util/Date;-><init>(J)V', u'Landroid/graphics/Paint;->measureText([C I I)F', u'Landroid/content/Context;->getMainLooper()Landroid/os/Looper;', u'Landroid/"
p57
sg5
S'CHANGED (JI 39.73%)'
p58
sg7
F39.729999999999997
sa(dp59
g3
S'\nDELETED set([u"yyyy-MM-dd\'T\'HH:mm:ss-00:00", u\'Title\', u\' door.\', u\': \', u\'LastPlayedLevel\', u\'GetLocalDeviceID failed with FNF: \', u\'Fetched an advert: \', u\'Cannot decode null source array.\', u\' \', u\' Laser has passed \', u\'An exception occurred during AduruAdListener.onFailedToFetchAd\', u\'GetLocalDeviceId Failed with IO Exception: \', u\' < \', u\'Cannot determine the User-Agent of this device\', u\'File Not Found\', u\'The Aduru server did not respond\', u\'total_score\', u\'SELECT * FROM solutions\', u\'You have unlocked Sector \', u\'LOOP: \', u\'X-Aduru-DisplayHeight\', u\'level\', u\'  a: c\\n\', u\'Tag written.\', u\'ClientProtocolException: \', u\'startDoor: \', u\'sectorNum\', u\'Fetched an advert: [Image Ad]\', u\'Could not find the required ADURU_DEVELOPER_ID meta data within AndroidManifest.xml\', u\'State\', u\'Error in Base64 code reading stream.\', u\'Orange\', u\'Red\', u\'blue\', u\'Aduru\', u\'Amazon\', u\'LASER HIT SWITCH\', u\';\', u\'No SD Card Present\', u\'levelNum\', u\' files.\', u\'object_count\', u\'CREATE TABLE IF NOT EXISTS ga\n---\nADDED set([u\'Aquired location \', u\'User coordinates are \', u\'20090331-ANDROID-cc0d740c1b8c3da5\', u\'Cannot write "Ads by AdMob" because it does not fit onto one line.\', u\'client_sdk\', u\'keywords\', u\'isGoneWithoutAd\', u\'Ignoring requestFreshAd() because we are already getting a fresh ad.\', u\'myds\', u\'Publisher ID set to \', u\'Unhandled exception requesting a fresh ad.\', u\'Will not show "Ads by Admob" since this phone is \', u\'location\', u\' , age = \', u\'VirtualDog\', u\'<\', u\' at \', u\'Unhandled exception raised in your AdListener.onNewAd().\', u\'INSERT INTO vdog (name,energy,intelligent,fun,hygiene,skill,entime,intime,futime,hytime,sktime,age,score,playagain) VALUES ("\', u\'Ad clicked.  Opening the browser to \', u\'vibrator\', u\', futime = \', u\'Cannot requestFreshAd() when the AdView is not visible.  Call AdView.setVisibility(View.VISIBLE) first.\', u\'Mozilla/5.0 (Linux; U; Android %s) AppleWebKit/525.10+ (KHTML, like Gecko) Version/3.0.4 Mobile Safari/523.12.2\', u\' , hygiene = \', u\'DS Effects\', u\' , fu'
p60
sg5
S'CHANGED (JI 2.68%)'
p61
sg7
F2.6800000000000002
sa(dp62
g3
S"\nDELETED set(['Lcom/textualindices/refractionlite/LevelView;->dbadapter Lcom/textualindices/refractionlite/DBAdapter; [access_flags=0x0]\\n', 'Lcom/aduru/sdk/AdInfo;->E Ljava/lang/String; [access_flags=private static]\\n', 'Lcom/textualindices/refractionlite/SolutionsLocalActivity;->dbadapter Lcom/textualindices/refractionlite/DBAdapter; [access_flags=0x0]\\n', 'Lcom/textualindices/refractionlite/SolutionsLocalActivity$ExampleCursorAdapter$1;->val$finalUsername Ljava/lang/String; [access_flags=private synthetic final]\\n', 'Lcom/textualindices/refractionlite/LaserInstance;->color I [access_flags=public]\\n', 'Lcom/textualindices/refractionlite/Portal;->laser [Lcom/textualindices/refractionlite/LaserInstance; [access_flags=public]\\n', 'Lcom/textualindices/refractionlite/LevelActivity$1;->this$0 Lcom/textualindices/refractionlite/LevelActivity; [access_flags=synthetic final]\\n', 'Lcom/textualindices/refractionlite/LevelView;->rotationSensitivity F [access_flags=private]\\n', 'Lcom/textualindices/refrac\n---\nADDED set(['Lcom/admob/android/ads/Rotate3dAnimation;->mCenterX F [access_flags=private final]\\n', 'Lcom/admob/android/ads/Ad;->imageURL Ljava/lang/String; [access_flags=private]\\n', 'Lcom/dseffects/VirtualDog/VirtualDog;->dsAD Lcom/admob/android/ads/AdView; [access_flags=private]\\n', 'Lcom/admob/android/ads/AdContainer;->adsByAdmobPaint Landroid/graphics/Paint; [access_flags=private]\\n', 'Lcom/admob/android/ads/AdManager$Gender;->$VALUES [Lcom/admob/android/ads/AdManager$Gender; [access_flags=private synthetic static final]\\n', 'Lcom/admob/android/ads/AdView;->requestInterval I [access_flags=private]\\n', 'Lcom/admob/android/ads/AdManager;->detectUserId Z [access_flags=private static]\\n', 'Lcom/admob/android/ads/AdContainer;->backgroundColor I [access_flags=private]\\n', 'Lcom/admob/android/ads/Ad;->iconURL Ljava/lang/String; [access_flags=private]\\n', 'Lcom/admob/android/ads/Rotate3dAnimation;->mCamera Landroid/graphics/Camera; [access_flags=private]\\n', 'Lcom/admob/android/ads/AdManager;->u"
p63
sg5
S'CHANGED (JI 0.0%)'
p64
sg7
F0
sa.