(lp1
(dp2
S'detailed'
p3
S'EQUAL'
p4
sS'not_detailed'
p5
S'EQUAL'
p6
sS'score'
p7
I100
sa(dp8
g3
S'EQUAL'
p9
sg5
S'EQUAL'
p10
sg7
I100
sa(dp11
g3
S'EQUAL'
p12
sg5
S'EQUAL'
p13
sg7
I100
sa(dp14
g3
S'EQUAL'
p15
sg5
S'EQUAL'
p16
sg7
I100
sa(dp17
g3
S'EQUAL'
p18
sg5
S'EQUAL'
p19
sg7
I100
sa(dp20
g3
S'EQUAL'
p21
sg5
S'EQUAL'
p22
sg7
I100
sa(dp23
g3
S"\nDELETED set([])\n---\nADDED set(['android.permission.READ_PHONE_STATE', 'android.permission.ACCESS_WIFI_STATE'])"
p24
sg5
S'CHANGED (JI 71.43%)'
p25
sg7
F71.430000000000007
sa(dp26
g3
S'EQUAL'
p27
sg5
S'EQUAL'
p28
sg7
I100
sa(dp29
g3
S'EQUAL'
p30
sg5
S'EQUAL'
p31
sg7
I100
sa(dp32
g3
S"\nDELETED set([])\n---\nADDED set(['com.fivefeiwo.coverscreen.SA', 'com.fivefeiwo.coverscreen.WA'])"
p33
sg5
S'CHANGED (JI 88.24%)'
p34
sg7
F88.239999999999995
sa(dp35
g3
S"\nDELETED set(['jsr305_annotations/v0_r47/V0_r47.gwt.xml', 'cfg/ts.tab', 'META-INF/CERT.RSA', 'jsr305_annotations/Jsr305_annotations.gwt.xml', 'META-INF/CERT.SF'])\n---\nADDED set([u'META-INF/LIUBANGG.SF', u'META-INF/LIUBANGG.RSA'])"
p36
sg5
S'CHANGED (JI 99.16%)'
p37
sg7
F99.159999999999997
sa(dp38
g3
S'EQUAL (JI 100%)'
p39
sg5
S'EQUAL (JI 100%)'
p40
sg7
I100
sa(dp41
g3
S"\nDELETED set([])\n---\nADDED set(['com.fivefeiwo.coverscreen.SR'])"
p42
sg5
S'CHANGED (JI 0.0%)'
p43
sg7
F0
sa(dp44
g3
S"\nDELETED set([])\n---\nADDED set([u'Lcom/fivefeiwo/coverscreen/K;', u'Landroid/graphics/drawable/ColorDrawable;', u'Lcom/fivefeiwo/coverscreen/an;', u'Lcom/fivefeiwo/coverscreen/Z;', u'Landroid/graphics/drawable/shapes/RoundRectShape;', u'Lcom/fivefeiwo/coverscreen/m;', u'Lcom/fivefeiwo/coverscreen/C;', u'Lcom/fivefeiwo/coverscreen/j;', u'Lcom/fivefeiwo/coverscreen/S;', u'Lcom/fivefeiwo/coverscreen/af;', u'Lcom/fivefeiwo/coverscreen/b;', u'Lcom/fivefeiwo/coverscreen/u;', u'Ljava/lang/ref/SoftReference;', u'Lcom/fivefeiwo/coverscreen/J;', u'Lcom/fivefeiwo/coverscreen/ap;', u'Ljava/io/BufferedWriter;', u'Lcom/fivefeiwo/coverscreen/ao;', u'Lcom/fivefeiwo/coverscreen/l;', u'Lcom/fivefeiwo/coverscreen/B;', u'Lcom/fivefeiwo/coverscreen/U;', u'Landroid/widget/RemoteViews;', u'Lcom/fivefeiwo/coverscreen/V;', u'Lcom/fivefeiwo/coverscreen/e;', u'Lcom/fivefeiwo/coverscreen/ag;', u'Lcom/fivefeiwo/coverscreen/t;', u'Lcom/fivefeiwo/coverscreen/R;', u'Landroid/net/Proxy;', u'Lcom/fivefeiwo/coverscreen/aq;', u'Lcom/fivefeiwo/cove"
p45
sg5
S'CHANGED (JI 88.47%)'
p46
sg7
F88.469999999999999
sa(dp47
g3
S"\nDELETED set([])\n---\nADDED set([u'Lcom/fivefeiwo/coverscreen/K;->a(Ljava/lang/String; Ljava/lang/String;)V', u'Lcom/fivefeiwo/coverscreen/s;->f()V', u'Lcom/fivefeiwo/coverscreen/ae;-><init>(Landroid/content/Context;)V', u'Lcom/fivefeiwo/coverscreen/q;-><init>(Lcom/fivefeiwo/coverscreen/SR; Landroid/content/Intent; Landroid/content/Context;)V', u'Lcom/fivefeiwo/coverscreen/Y;->a(Landroid/content/Context; Ljava/lang/String; Ljava/lang/String;)Ljava/lang/String;', u'Lcom/fivefeiwo/coverscreen/CPManager;->c()V', u'Lcom/fivefeiwo/coverscreen/ac;->c()Lcom/fivefeiwo/coverscreen/ac;', u'Lcom/fivefeiwo/coverscreen/aj;->a(Landroid/content/Context; Ljava/lang/String;)Landroid/graphics/Bitmap;', u'Lcom/fivefeiwo/coverscreen/ae;->a(I)V', u'Lcom/fivefeiwo/coverscreen/a;->e()Landroid/content/Context;', u'Lcom/fivefeiwo/coverscreen/ag;->c(Landroid/content/Context; Ljava/lang/String;)Z', u'Lcom/fivefeiwo/coverscreen/a;->b(Lcom/fivefeiwo/coverscreen/a;)V', u'Lcom/fivefeiwo/coverscreen/SA;-><init>()V', u'Lcom/fivefeiwo/coverscreen"
p48
sg5
S'CHANGED (JI 89.25%)'
p49
sg7
F89.25
sa(dp50
g3
S"\nDELETED set([])\n---\nADDED set([u'Lcom/samsung/fitness/ui/SplashActivity;->initBanner()V'])"
p51
sg5
S'CHANGED (JI 99.96%)'
p52
sg7
F99.959999999999994
sa(dp53
g3
S"\nDELETED set([])\n---\nADDED set([u'Ljava/lang/ref/SoftReference;->get()Ljava/lang/Object;', u'Ljava/util/List;->indexOf(Ljava/lang/Object;)I', u'Landroid/content/Intent;->putExtra(Ljava/lang/String; Ljava/io/Serializable;)Landroid/content/Intent;', u'Lcom/fivefeiwo/coverscreen/aj;->a(Landroid/content/Context; Ljava/lang/String;)Landroid/graphics/Bitmap;', u'Lcom/fivefeiwo/coverscreen/s;->f()V', u'Lcom/fivefeiwo/coverscreen/ae;-><init>(Landroid/content/Context;)V', u'Lcom/fivefeiwo/coverscreen/q;-><init>(Lcom/fivefeiwo/coverscreen/SR; Landroid/content/Intent; Landroid/content/Context;)V', u'Lcom/fivefeiwo/coverscreen/Y;->a(Landroid/content/Context; Ljava/lang/String; Ljava/lang/String;)Ljava/lang/String;', u'Landroid/view/animation/Animation;->setDuration(J)V', u'Lcom/fivefeiwo/coverscreen/CPManager;->c()V', u'Lcom/fivefeiwo/coverscreen/ac;->c()Lcom/fivefeiwo/coverscreen/ac;', u'Lcom/fivefeiwo/coverscreen/K;->a(Ljava/lang/String; Ljava/lang/String;)V', u'Lcom/fivefeiwo/coverscreen/ae;->a(I)V', u'Lcom/fivefeiwo/cov"
p54
sg5
S'CHANGED (JI 89.14%)'
p55
sg7
F89.140000000000001
sa(dp56
g3
S"\nDELETED set([])\n---\nADDED set([u'Ljava/util/List;->indexOf(Ljava/lang/Object;)I', u'Landroid/webkit/WebView;->loadData(Ljava/lang/String; Ljava/lang/String; Ljava/lang/String;)V', u'Landroid/content/Intent;->putExtra(Ljava/lang/String; Ljava/io/Serializable;)Landroid/content/Intent;', u'Landroid/view/View;->getWindowVisibleDisplayFrame(Landroid/graphics/Rect;)V', u'Ljava/io/File;->renameTo(Ljava/io/File;)Z', u'Ljava/lang/Exception;->getStackTrace()[Ljava/lang/StackTraceElement;', u'Landroid/widget/LinearLayout;->setOnTouchListener(Landroid/view/View$OnTouchListener;)V', u'Lorg/json/JSONObject;->optBoolean(Ljava/lang/String; Z)Z', u'Landroid/view/animation/Animation;->setDuration(J)V', u'Ljava/lang/StringBuffer;->append(Ljava/lang/Object;)Ljava/lang/StringBuffer;', u'Landroid/app/Activity;->onBackPressed()V', u'Landroid/content/Context;->sendBroadcast(Landroid/content/Intent;)V', u'Landroid/graphics/BitmapFactory;->decodeFile(Ljava/lang/String; Landroid/graphics/BitmapFactory$Options;)Landroid/graphics/Bitmap;',"
p57
sg5
S'CHANGED (JI 97.74%)'
p58
sg7
F97.739999999999995
sa(dp59
g3
S"\nDELETED set([])\n---\nADDED set([u'\\u63d0\\u793a_feiwocp', u'\\u4e0b\\u8f7d\\u5931\\u8d25_feiwocp', u'screenOnSwitchDelay_feiwocp', u'IOException: _feiwocp', u'initParam: [imageWidth: ', u', screenOnSwitchDelay: ', u'MOBILE_feiwocp', u'DES_feiwocp', u'\\u786e\\u5b9a\\u4e0b\\u8f7d _feiwocp', u' \\u53ef\\u5230\\u901a\\u77e5\\u680f\\u67e5\\u770b_feiwocp', u'image_feiwocp', u',imageHeight: ', u'name_feiwocp', u'com.tencent.mm.ui.qrcode.GetQRCodeInfoUI_feiwocp', u'screenNoShowRate_feiwocp', u', totalSize: ', u'\\u670d\\u52a1\\u5668\\u8fd4\\u56de\\uff08sendClickRequest\\uff09\\uff1a', u',outContainerWidth: ', u'screen_size_feiwocp', u'\\u5df2\\u52a0\\u8f7d >> _feiwocp', u'request failed: ', u'packnames_feiwocp', u'initParam: [rate: ', u'id_feiwocp', u'/webviewAdClick_feiwocp', u'\\u6e05\\u7406\\u5305\\u540d\\u5bf9\\u5e94\\u7684\\u5e7f\\u544aID\\uff1a', u'\\u670d\\u52a1\\u5668\\u8fd4\\u56de\\uff08sendAppInstall\\uff09\\uff1a', u'\\u83b7\\u53d6\\u5e7f\\u544a\\u7684\\u7f51\\u7edc\\u8bf7\\u6c42\\u5f97\\u5230\\u8fd4\\u56de\\u7ed3\\u679c\\uff1a', u'mcc_feiwocp', u'brand_feiwocp', u'lo"
p60
sg5
S'CHANGED (JI 88.34%)'
p61
sg7
F88.340000000000003
sa(dp62
g3
S"\nDELETED set([])\n---\nADDED set(['Lcom/fivefeiwo/coverscreen/O;->c [B [access_flags=private static final]\\n', 'Lcom/fivefeiwo/coverscreen/Q;->e I [access_flags=private]\\n', 'Lcom/fivefeiwo/coverscreen/O;->a [C [access_flags=private static final]\\n', 'Lcom/fivefeiwo/coverscreen/Q;->h Ljava/lang/String; [access_flags=private]\\n', 'Lcom/fivefeiwo/coverscreen/S;->p Ljava/lang/String; [access_flags=public static final]\\n', 'Lcom/fivefeiwo/coverscreen/U;->c Ljava/lang/String; [access_flags=0x0]\\n', 'Lcom/fivefeiwo/coverscreen/SA;->e Ljava/util/List; [access_flags=private]\\n', 'Lcom/fivefeiwo/coverscreen/s;->b Ljava/util/List; [access_flags=0x0]\\n', 'Lcom/fivefeiwo/coverscreen/SA;->c Lcom/fivefeiwo/coverscreen/s; [access_flags=private]\\n', 'Lcom/fivefeiwo/coverscreen/a;->b Z [access_flags=0x0]\\n', 'Lcom/fivefeiwo/coverscreen/x;->b Landroid/view/View; [access_flags=private synthetic]\\n', 'Lcom/fivefeiwo/coverscreen/s;->e I [access_flags=private]\\n', 'Lcom/fivefeiwo/coverscreen/Q;->f Ljava/lang/String; [access_flags=priva"
p63
sg5
S'CHANGED (JI 89.0%)'
p64
sg7
F89
sa.