(lp1
(dp2
S'detailed'
p3
S'EQUAL'
p4
sS'not_detailed'
p5
S'EQUAL'
p6
sS'score'
p7
I100
sa(dp8
g3
S'EQUAL'
p9
sg5
S'EQUAL'
p10
sg7
I100
sa(dp11
g3
S'EQUAL'
p12
sg5
S'EQUAL'
p13
sg7
I100
sa(dp14
g3
S'EQUAL'
p15
sg5
S'EQUAL'
p16
sg7
I100
sa(dp17
g3
S'EQUAL'
p18
sg5
S'EQUAL'
p19
sg7
I100
sa(dp20
g3
S'EQUAL'
p21
sg5
S'EQUAL'
p22
sg7
I100
sa(dp23
g3
S'EQUAL (JI 100%)'
p24
sg5
S'EQUAL (JI 100%)'
p25
sg7
I100
sa(dp26
g3
S'EQUAL'
p27
sg5
S'EQUAL'
p28
sg7
I100
sa(dp29
g3
S'EQUAL'
p30
sg5
S'EQUAL'
p31
sg7
I100
sa(dp32
g3
S'EQUAL (JI 100%)'
p33
sg5
S'EQUAL (JI 100%)'
p34
sg7
I100
sa(dp35
g3
S"\nDELETED set([])\n---\nADDED set([u'assets/bin/Data/CERT.RSA'])"
p36
sg5
S'CHANGED (JI 99.73%)'
p37
sg7
F99.730000000000004
sa(dp38
g3
S'EQUAL (JI 100%)'
p39
sg5
S'EQUAL (JI 100%)'
p40
sg7
I100
sa(dp41
g3
S'EQUAL (JI 100%)'
p42
sg5
S'EQUAL (JI 100%)'
p43
sg7
I100
sa(dp44
g3
S"\nDELETED set([])\n---\nADDED set([u'Landroid/graphics/Color;', u'Landroid/widget/Toast;', u'Lcom/apkmania/apkmania$1;', u'Landroid/content/pm/Signature;', u'Ljava/security/DigestInputStream;', u'Lcom/apkmania/apkmania;'])"
p45
sg5
S'CHANGED (JI 99.57%)'
p46
sg7
F99.569999999999993
sa(dp47
g3
S"\nDELETED set([])\n---\nADDED set([u'Lcom/apkmania/apkmania;->getSettingsString(Landroid/content/ContentResolver; Ljava/lang/String;)Ljava/lang/String;', u'Lcom/apkmania/apkmania;->shouldSpoofFileInfo(Ljava/io/File;)Z', u'Lcom/apkmania/apkmania;->getApplicationEnabledSetting(Landroid/content/pm/PackageManager; Ljava/lang/String;)I', u'Lcom/apkmania/apkmania;->length(Ljava/io/File;)J', u'Lcom/apkmania/apkmania;->getRealDeviceID()Ljava/lang/String;', u'Lcom/apkmania/apkmania;->md5Hash(Ljava/io/File;)Ljava/lang/String;', u'Lcom/apkmania/apkmania;->checkSignatures(Ljava/lang/String; Ljava/lang/String;)I', u'Lcom/apkmania/apkmania;->isDebuggerConnected()Z', u'Lcom/apkmania/apkmania;->getInstallerPackageName(Landroid/content/pm/PackageManager; Ljava/lang/String;)Ljava/lang/String;', u'Lcom/apkmania/apkmania;->createInfoBox(Landroid/content/Context;)V', u'Lcom/apkmania/apkmania;->getApplicationInfo(Landroid/content/Context;)Landroid/content/pm/ApplicationInfo;', u'Lcom/apkmania/apkmania;->Log(Ljava/lang/Object;)V', u'Lcom"
p48
sg5
S'CHANGED (JI 99.64%)'
p49
sg7
F99.640000000000001
sa(dp50
g3
S'EQUAL (JI 100%)'
p51
sg5
S'EQUAL (JI 100%)'
p52
sg7
I100
sa(dp53
g3
S"\nDELETED set([])\n---\nADDED set([u'Lcom/apkmania/apkmania;->getSettingsString(Landroid/content/ContentResolver; Ljava/lang/String;)Ljava/lang/String;', u'Lcom/apkmania/apkmania;->getApplicationEnabledSetting(Landroid/content/pm/PackageManager; Ljava/lang/String;)I', u'Lcom/apkmania/apkmania;->length(Ljava/io/File;)J', u'Landroid/app/AlertDialog;->setView(Landroid/view/View;)V', u'Lcom/apkmania/apkmania;->getRealDeviceID()Ljava/lang/String;', u'Landroid/widget/ImageView;->setImageDrawable(Landroid/graphics/drawable/Drawable;)V', u'Landroid/telephony/TelephonyManager;->getDeviceId()Ljava/lang/String;', u'Lcom/unity3d/player/UnityPlayerNativeActivity;->getSharedPreferences(Ljava/lang/String; I)Landroid/content/SharedPreferences;', u'Lcom/apkmania/apkmania;->spoofSignatures()[Landroid/content/pm/Signature;', u'Landroid/widget/RelativeLayout;->setBackgroundColor(I)V', u'Lcom/apkmania/apkmania$1;-><init>(Landroid/content/Context;)V', u'Lcom/apkmania/apkmania;->invokeHook(Ljava/lang/reflect/Method; Ljava/lang/Object; [L"
p54
sg5
S'CHANGED (JI 99.54%)'
p55
sg7
F99.540000000000006
sa(dp56
g3
S"\nDELETED set([])\n---\nADDED set([u'Landroid/widget/ImageView;->setLayoutParams(Landroid/view/ViewGroup$LayoutParams;)V', u'Landroid/graphics/drawable/Drawable;->createFromStream(Ljava/io/InputStream; Ljava/lang/String;)Landroid/graphics/drawable/Drawable;', u'Landroid/content/pm/PackageManager$NameNotFoundException;-><init>()V', u'Landroid/content/Context;->getAssets()Landroid/content/res/AssetManager;', u'Ljava/lang/Thread;->dumpStack()V', u'Ljava/lang/StackTraceElement;->toString()Ljava/lang/String;', u'Landroid/app/AlertDialog;->setView(Landroid/view/View;)V', u'Landroid/widget/ImageView;->setImageDrawable(Landroid/graphics/drawable/Drawable;)V', u'Landroid/telephony/TelephonyManager;->getDeviceId()Ljava/lang/String;', u'Ljava/lang/Thread;->getStackTrace()[Ljava/lang/StackTraceElement;', u'Lcom/unity3d/player/UnityPlayerNativeActivity;->getSharedPreferences(Ljava/lang/String; I)Landroid/content/SharedPreferences;', u'Landroid/widget/ImageView;-><init>(Landroid/content/Context;)V', u'Landroid/content/pm/Package"
p57
sg5
S'CHANGED (JI 99.86%)'
p58
sg7
F99.859999999999999
sa(dp59
g3
S'\nDELETED set([])\n---\nADDED set([u\'getApplicationInfo\', u\'Stack trace:\\n\', u\'  real: \', u\'android.os.Debug\', u\'getInstallerPackageName\', u\'getInstallerPackageName(\', u"getDeviceID has no context, can\'t spoof device id. using fallback.", u\'6265704\', u\'setting for android_id requested, calling getDeviceID()\', u\'bin/Data/CERT.RSA\', u\'Thanks for visiting APKMANIA.COM\', u\') returning SIGNATURE_MATCH\', u\'000000000000000\', u\'ShowInfoBox\', u\'android.content.pm.PackageManager\', u\'getApplicationEnabledSetting\', u\'getPackageInfo\', u\'verify\', u\'jffabtz\', u\'using \', u\'initVerify\', u\'checkSignatures(\', u\'android.content.Context\', u\'pro\', u\'apkmania.com\', u\'Invoke Hook: \', u\'full\', u\'unknown-static\', u\'308204a830820390a003020102020900936eacbe07f201df300d06092a864886f70d0101050500308194310b3009060355040613025553311330110603550408130a43616c69666f726e6961311630140603550407130d4d6f756e7461696e20566965773110300e060355040a1307416e64726f69643110300e060355040b1307416e64726f69643110300e06035504031307416e64726f69643122302006092a864886f70'
p60
sg5
S'CHANGED (JI 98.28%)'
p61
sg7
F98.280000000000001
sa(dp62
g3
S"\nDELETED set([])\n---\nADDED set(['Lcom/apkmania/apkmania;->myIDSpoofType I [access_flags=private static]\\n', 'Lcom/apkmania/apkmania;->myAppContext Landroid/content/Context; [access_flags=private static]\\n', 'Lcom/apkmania/apkmania;->DEBUG Z [access_flags=private static]\\n', 'Lcom/apkmania/apkmania;->mySpoofID Ljava/lang/String; [access_flags=private static]\\n', 'Lcom/apkmania/apkmania$1;->val$context Landroid/content/Context; [access_flags=private synthetic final]\\n', 'Lcom/apkmania/apkmania;->PrefsFile Ljava/lang/String; [access_flags=private static]\\n', 'Lcom/apkmania/apkmania;->LOG_TAG Ljava/lang/String; [access_flags=private static]\\n', 'Lcom/apkmania/apkmania;->DUMP_STACK Z [access_flags=private static]\\n'])"
p63
sg5
S'CHANGED (JI 99.66%)'
p64
sg7
F99.659999999999997
sa.