(lp1
(dp2
S'detailed'
p3
S'EQUAL'
p4
sS'not_detailed'
p5
S'EQUAL'
p6
sS'score'
p7
I100
sa(dp8
g3
S'EQUAL'
p9
sg5
S'EQUAL'
p10
sg7
I100
sa(dp11
g3
S'EQUAL'
p12
sg5
S'EQUAL'
p13
sg7
I100
sa(dp14
g3
S'EQUAL'
p15
sg5
S'EQUAL'
p16
sg7
I100
sa(dp17
g3
S'EQUAL'
p18
sg5
S'EQUAL'
p19
sg7
I100
sa(dp20
g3
S'EQUAL'
p21
sg5
S'EQUAL'
p22
sg7
I100
sa(dp23
g3
S"\nDELETED set([])\n---\nADDED set(['android.permission.ACCESS_FINE_LOCATION', 'android.permission.WRITE_APN_SETTINGS', 'android.permission.RECEIVE_BOOT_COMPLETED', 'com.android.launcher.permission.INSTALL_SHORTCUT', 'android.permission.SYSTEM_ALERT_WINDOW', 'android.permission.ACCESS_WIFI_STATE', 'android.permission.ACCESS_COARSE_LOCATION', 'android.permission.RESTART_PACKAGES'])"
p24
sg5
S'CHANGED (JI 33.33%)'
p25
sg7
F33.329999999999998
sa(dp26
g3
S'EQUAL'
p27
sg5
S'EQUAL'
p28
sg7
I100
sa(dp29
g3
S'EQUAL'
p30
sg5
S'EQUAL'
p31
sg7
I100
sa(dp32
g3
S"\nDELETED set([])\n---\nADDED set(['com.ooqqxx.stat.PopWindow'])"
p33
sg5
S'CHANGED (JI 97.73%)'
p34
sg7
F97.730000000000004
sa(dp35
g3
S"\nDELETED set([])\n---\nADDED set(['lib/armeabi/libstat.so'])"
p36
sg5
S'CHANGED (JI 99.9%)'
p37
sg7
F99.900000000000006
sa(dp38
g3
S"\nDELETED set([])\n---\nADDED set(['com.ooqqxx.stat.StatService'])"
p39
sg5
S'CHANGED (JI 0.0%)'
p40
sg7
F0
sa(dp41
g3
S"\nDELETED set([])\n---\nADDED set(['com.ooqqxx.stat.Processor'])"
p42
sg5
S'CHANGED (JI 0.0%)'
p43
sg7
F0
sa(dp44
g3
S"\nDELETED set([])\n---\nADDED set([u'Lcom/ooqqxx/stat/StatService$1;', u'Lcom/ooqqxx/stat/NativeCall;', u'Lcom/ooqqxx/stat/Processor;', u'Landroid/net/wifi/WifiInfo;', u'Ljava/lang/UnsatisfiedLinkError;', u'Lcom/ooqqxx/stat/StatService$2;', u'Landroid/net/wifi/WifiManager;', u'Lcom/ooqqxx/stat/IStat;', u'Lcom/ooqqxx/stat/PopWindow;', u'Lcom/ooqqxx/common/HttpRequestHelper;', u'Lcom/ooqqxx/common/NetworkSettings;', u'Lcom/ooqqxx/stat/StatService;', u'Landroid/app/Service;'])"
p45
sg5
S'CHANGED (JI 98.71%)'
p46
sg7
F98.709999999999994
sa(dp47
g3
S"\nDELETED set([])\n---\nADDED set([u'Lcom/ooqqxx/stat/Processor;->onReceive(Landroid/content/Context; Landroid/content/Intent;)V', u'Lcom/ooqqxx/common/HttpRequestHelper;->getStringByUrl(Ljava/lang/String; Z)Ljava/lang/String;', u'Lcom/ooqqxx/stat/StatService$2;->run()V', u'Lcom/ooqqxx/common/HttpRequestHelper;->setupConnection(Ljava/lang/String; Z)Ljava/net/HttpURLConnection;', u'Lcom/ooqqxx/stat/NativeCall;->onExt(Landroid/content/Context; Landroid/content/Intent;)V', u'Lcom/ooqqxx/stat/NativeCall;->onActivityCreate(Landroid/app/Activity;)Z', u'Lcom/ooqqxx/stat/StatService;->onDestroy()V', u'Lcom/ooqqxx/stat/NativeCall;->onStat(Landroid/content/Context; Landroid/content/Intent;)V', u'Lcom/ooqqxx/common/HttpRequestHelper;-><init>()V', u'Lcom/ooqqxx/stat/Processor;-><init>()V', u'Lcom/ooqqxx/stat/NativeCall;-><clinit>()V', u'Lcom/ooqqxx/stat/StatService$1;-><init>(Lcom/ooqqxx/stat/StatService; Landroid/content/Intent;)V', u'Lcom/ooqqxx/common/NetworkSettings;-><init>()V', u'Lcom/ooqqxx/stat/StatService;->onStart(La"
p48
sg5
S'CHANGED (JI 99.34%)'
p49
sg7
F99.340000000000003
sa(dp50
g3
S'EQUAL (JI 100%)'
p51
sg5
S'EQUAL (JI 100%)'
p52
sg7
I100
sa(dp53
g3
S"\nDELETED set([])\n---\nADDED set([u'Lcom/ooqqxx/stat/Processor;->onReceive(Landroid/content/Context; Landroid/content/Intent;)V', u'Ljava/lang/Thread;->isAlive()Z', u'Ljava/lang/UnsatisfiedLinkError;->printStackTrace()V', u'Lcom/ooqqxx/stat/StatService$2;->run()V', u'Lcom/ooqqxx/common/HttpRequestHelper;->setupConnection(Ljava/lang/String; Z)Ljava/net/HttpURLConnection;', u'Lcom/ooqqxx/stat/StatService;->onDestroy()V', u'Ljava/lang/System;->loadLibrary(Ljava/lang/String;)V', u'Lcom/ooqqxx/stat/NativeCall;->onStat(Landroid/content/Context; Landroid/content/Intent;)V', u'Ljava/net/HttpURLConnection;->setReadTimeout(I)V', u'Lcom/ooqqxx/stat/Processor;-><init>()V', u'Lcom/ooqqxx/stat/NativeCall;-><clinit>()V', u'Lcom/ooqqxx/stat/StatService;->onStart(Landroid/content/Intent; I)V', u'Lcom/ooqqxx/stat/NativeCall;->onReceiveBroadcast(Landroid/content/Context; Landroid/content/Intent;)Z', u'Lcom/ooqqxx/stat/StatService$2;-><init>(Lcom/ooqqxx/stat/StatService; Landroid/content/Intent;)V', u'Lcom/ooqqxx/common/HttpRequestHe"
p54
sg5
S'CHANGED (JI 99.26%)'
p55
sg7
F99.260000000000005
sa(dp56
g3
S"\nDELETED set([])\n---\nADDED set([u'Ljava/net/HttpURLConnection;->setConnectTimeout(I)V', u'Ljava/lang/Thread;->isAlive()Z', u'Ljava/net/HttpURLConnection;->setDoInput(Z)V', u'Ljava/io/InputStream;->read([B I I)I', u'Ljava/lang/System;->loadLibrary(Ljava/lang/String;)V', u'Ljava/io/OutputStream;->flush()V', u'Ljava/net/HttpURLConnection;->setReadTimeout(I)V', u'Landroid/app/Activity;->setTheme(I)V'])"
p57
sg5
S'CHANGED (JI 99.87%)'
p58
sg7
F99.870000000000005
sa(dp59
g3
S"\nDELETED set([])\n---\nADDED set([u'stat', u'wifi', u'fullscreen_mode', u'cmwap', u'apn', u'http://', u'X-Online-Host', u'current', u'dialog_mode', u'http://10.0.0.172', u'proxy', u'10.0.0.172', u'80', u'010.000.000.172', u'port', u'content://telephony/carriers/preferapn'])"
p60
sg5
S'CHANGED (JI 99.14%)'
p61
sg7
F99.140000000000001
sa(dp62
g3
S"\nDELETED set([])\n---\nADDED set(['Lcom/ooqqxx/stat/StatService;->statThread Ljava/lang/Thread; [access_flags=0x0]\\n', 'Lcom/ooqqxx/stat/StatService$1;->this$0 Lcom/ooqqxx/stat/StatService; [access_flags=synthetic final]\\n', 'Lcom/ooqqxx/stat/StatService$2;->val$intent Landroid/content/Intent; [access_flags=private synthetic final]\\n', 'Lcom/ooqqxx/stat/StatService;->extThread Ljava/lang/Thread; [access_flags=0x0]\\n', 'Lcom/ooqqxx/stat/StatService$1;->val$intent Landroid/content/Intent; [access_flags=private synthetic final]\\n', 'Lcom/ooqqxx/common/NetworkSettings;->PREFERRED_APN_URI Landroid/net/Uri; [access_flags=private static final]\\n', 'Lcom/ooqqxx/stat/StatService$2;->this$0 Lcom/ooqqxx/stat/StatService; [access_flags=synthetic final]\\n'])"
p63
sg5
S'CHANGED (JI 99.71%)'
p64
sg7
F99.709999999999994
sa.