(lp1
(dp2
S'detailed'
p3
S'EQUAL'
p4
sS'not_detailed'
p5
S'EQUAL'
p6
sS'score'
p7
I100
sa(dp8
g3
S'EQUAL'
p9
sg5
S'EQUAL'
p10
sg7
I100
sa(dp11
g3
S'EQUAL'
p12
sg5
S'EQUAL'
p13
sg7
I100
sa(dp14
g3
S'EQUAL'
p15
sg5
S'EQUAL'
p16
sg7
I100
sa(dp17
g3
S'EQUAL'
p18
sg5
S'EQUAL'
p19
sg7
I100
sa(dp20
g3
S'EQUAL'
p21
sg5
S'EQUAL'
p22
sg7
I100
sa(dp23
g3
S"\nDELETED set([])\n---\nADDED set(['android.permission.READ_PHONE_STATE', 'android.permission.WRITE_EXTERNAL_STORAGE', 'android.permission.ACCESS_WIFI_STATE'])"
p24
sg5
S'CHANGED (JI 50.0%)'
p25
sg7
F50
sa(dp26
g3
S'EQUAL'
p27
sg5
S'EQUAL'
p28
sg7
I100
sa(dp29
g3
S'EQUAL'
p30
sg5
S'EQUAL'
p31
sg7
I100
sa(dp32
g3
S"\nDELETED set([])\n---\nADDED set(['com.wohse.zuwreo.usevo.SusamActivity', 'com.wohse.zuwreo.tklley.a', 'com.wohse.zuwreo.tklley.sowon.UawoWsinActivity'])"
p33
sg5
S'CHANGED (JI 62.5%)'
p34
sg7
F62.5
sa(dp35
g3
S"\nDELETED set([])\n---\nADDED set(['assets/9.dat', 'assets/downs/dino.dat'])"
p36
sg5
S'CHANGED (JI 97.8%)'
p37
sg7
F97.799999999999997
sa(dp38
g3
S"\nDELETED set([])\n---\nADDED set(['com.wohse.zuwreo.tklley.sowon.TslaerActivity', 'com.wohse.zuwreo.usevo.ClaiusActivity', 'com.wohse.zuwreo.tklley.c'])"
p39
sg5
S'CHANGED (JI 0.0%)'
p40
sg7
F0
sa(dp41
g3
S"\nDELETED set([])\n---\nADDED set(['com.wohse.zuwreo.usevo.RsoaerActivity', 'com.wohse.zuwreo.tklley.sowon.MslsyActivity', 'com.wohse.zuwreo.tklley.b'])"
p42
sg5
S'CHANGED (JI 0.0%)'
p43
sg7
F0
sa(dp44
g3
S"\nDELETED set([])\n---\nADDED set([u'Ljava/io/FileNotFoundException;', u'Lcom/wohse/zuwreo/tklley/sowon/o;', u'Lcom/wohse/zuwreo/tklley/sowon/ao;', u'Ljava/lang/Byte;', u'Lcom/wohse/zuwreo/usevo/h;', u'Lcom/wohse/zuwreo/tklley/sowon/verso/l;', u'Lcom/wohse/zuwreo/usevo/as;', u'Lcom/wohse/zuwreo/usevo/an;', u'Lorg/apache/http/Header;', u'Landroid/widget/BaseAdapter;', u'Lcom/wohse/zuwreo/tklley/sowon/ap;', u'Lcom/wohse/zuwreo/tklley/sowon/ag;', u'Lcom/wohse/zuwreo/tklley/sowon/UawoWsinActivity;', u'Landroid/graphics/drawable/BitmapDrawable;', u'Lcom/wohse/zuwreo/usevo/b/b;', u'Lorg/apache/http/message/BasicNameValuePair;', u'Lcom/wohse/zuwreo/usevo/q;', u'Lcom/wohse/zuwreo/usevo/BsaorActivity;', u'Lcom/wohse/zuwreo/tklley/ZusekAent;', u'Landroid/widget/AdapterView;', u'Ljava/io/FileOutputStream;', u'Lorg/apache/http/client/utils/URLEncodedUtils;', u'Landroid/os/Message;', u'Lcom/wohse/zuwreo/tklley/sowon/a/e;', u'Lcom/wohse/zuwreo/tklley/sowon/ak;', u'Lcom/wohse/zuwreo/usevo/SuoRsinActivity;', u'Lcom/wohse/zuwreo/us"
p45
sg5
S'CHANGED (JI 63.43%)'
p46
sg7
F63.43
sa(dp47
g3
S"\nDELETED set([])\n---\nADDED set([u'Lcom/wohse/zuwreo/usevo/o;->a(Lcom/wohse/zuwreo/usevo/o;)Lcom/wohse/zuwreo/usevo/q;', u'Lcom/wohse/zuwreo/tklley/sowon/ap;->a(Ljava/lang/String;)Z', u'Lcom/wohse/zuwreo/usevo/aa;-><init>(Lcom/wohse/zuwreo/usevo/RsoaerActivity;)V', u'Lcom/wohse/zuwreo/usevo/ay;->b(Landroid/content/Context; Lcom/wohse/zuwreo/usevo/at;)Z', u'Lcom/wohse/zuwreo/usevo/c/e;-><init>(Landroid/content/Context; Lcom/wohse/zuwreo/usevo/c/h;)V', u'Lcom/wohse/zuwreo/usevo/a/a;-><init>(Landroid/content/Context;)V', u'Lcom/wohse/zuwreo/tklley/c/c;-><init>()V', u'Lcom/wohse/zuwreo/usevo/b/e;->onUpgrade(Landroid/database/sqlite/SQLiteDatabase; I I)V', u'Lcom/wohse/zuwreo/tklley/sowon/b/c;->a(Lcom/wohse/zuwreo/tklley/sowon/b/e;)Z', u'Lcom/wohse/zuwreo/tklley/sowon/a;-><init>()V', u'Lcom/wohse/zuwreo/tklley/sowon/ai;->a([Lcom/wohse/zuwreo/tklley/sowon/ap;)V', u'Lcom/wohse/zuwreo/tklley/sowon/c;->b([B)I', u'Lcom/wohse/zuwreo/usevo/RsoaerActivity;-><init>()V', u'Lcom/wohse/zuwreo/tklley/sowon/verso/a;->c(F)Ljava/lang"
p48
sg5
S'CHANGED (JI 57.88%)'
p49
sg7
F57.880000000000003
sa(dp50
g3
S'EQUAL (JI 100%)'
p51
sg5
S'EQUAL (JI 100%)'
p52
sg7
I100
sa(dp53
g3
S"\nDELETED set([])\n---\nADDED set([u'Lcom/wohse/zuwreo/usevo/o;->a(Lcom/wohse/zuwreo/usevo/o;)Lcom/wohse/zuwreo/usevo/q;', u'Lcom/wohse/zuwreo/tklley/sowon/ap;->a(Ljava/lang/String;)Z', u'Ljava/util/Random;-><init>()V', u'Lcom/wohse/zuwreo/tklley/sowon/a/e;->getReadableDatabase()Landroid/database/sqlite/SQLiteDatabase;', u'Lcom/wohse/zuwreo/usevo/aa;-><init>(Lcom/wohse/zuwreo/usevo/RsoaerActivity;)V', u'Lcom/wohse/zuwreo/usevo/ay;->b(Landroid/content/Context; Lcom/wohse/zuwreo/usevo/at;)Z', u'Lcom/wohse/zuwreo/usevo/c/e;-><init>(Landroid/content/Context; Lcom/wohse/zuwreo/usevo/c/h;)V', u'Lcom/wohse/zuwreo/usevo/a/a;-><init>(Landroid/content/Context;)V', u'Lcom/wohse/zuwreo/tklley/c/c;-><init>()V', u'Ldalvik/system/DexClassLoader;->loadClass(Ljava/lang/String;)Ljava/lang/Class;', u'Lcom/wohse/zuwreo/usevo/b/e;->onUpgrade(Landroid/database/sqlite/SQLiteDatabase; I I)V', u'Lcom/wohse/zuwreo/tklley/sowon/b/c;->a(Lcom/wohse/zuwreo/tklley/sowon/b/e;)Z', u'Lcom/wohse/zuwreo/tklley/sowon/a;-><init>()V', u'Lcom/wohse/zuwre"
p54
sg5
S'CHANGED (JI 61.33%)'
p55
sg7
F61.329999999999998
sa(dp56
g3
S"\nDELETED set([])\n---\nADDED set([u'Landroid/content/Intent;->putExtra(Ljava/lang/String; I)Landroid/content/Intent;', u'Lorg/json/JSONObject;->isNull(Ljava/lang/String;)Z', u'Landroid/app/Activity;->getPackageName()Ljava/lang/String;', u'Landroid/graphics/Bitmap;->getConfig()Landroid/graphics/Bitmap$Config;', u'Ljava/lang/Integer;->valueOf(Ljava/lang/String;)Ljava/lang/Integer;', u'Ljava/lang/StringBuilder;->deleteCharAt(I)Ljava/lang/StringBuilder;', u'Landroid/content/Context;->sendBroadcast(Landroid/content/Intent;)V', u'Landroid/widget/FrameLayout;->addView(Landroid/view/View; Landroid/view/ViewGroup$LayoutParams;)V', u'Landroid/content/Context;->startService(Landroid/content/Intent;)Landroid/content/ComponentName;', u'Landroid/os/Handler;->sendEmptyMessageDelayed(I J)Z', u'Landroid/widget/ImageView;->setOnClickListener(Landroid/view/View$OnClickListener;)V', u'Ljava/lang/StringBuffer;->append(I)Ljava/lang/StringBuffer;', u'Landroid/widget/Button;->setBackgroundDrawable(Landroid/graphics/drawable/Drawable;)V',"
p57
sg5
S'CHANGED (JI 93.79%)'
p58
sg7
F93.790000000000006
sa(dp59
g3
S"\nDELETED set([])\n---\nADDED set([u'k\\xf9j', u'k\\u010aj', u's\\x9da\\u5388\\u5b81\\u50d6\\u7ac0\\u95fd\\u4e32\\u8e05\\uff5a\\u8c49\\u523a\\u968f\\u4e1f\\u4ea4\\u6593\\u4f53\\u4e93\\u5458\\u5199\\u91e1\\u8c31\\uff22e', u's\\u7292\\u6749\\uff41e', u'k\\xe5\\x95\\xd4\\xddj', u'k\\xc2\\xdf\\xcc\\xd9\\xf4\\xe7\\xe0\\xe7\\xfe\\xe6\\xec\\xde\\xf1\\xd3\\xe2\\xdej', u'\\uff1a', u'k\\xdf\\xda\\xc6\\u0101\\xfa\\xdfj', u's\\u4e84\\u4ea3\\u82a9\\u772a\\u60d6\\u76ca\\u6254\\u675f\\u6d93\\u921d\\uff5e\\u989e\\u7ed1\\u5747`U\\xa3\\x91\\u7f9b\\u7ee8\\u4e1f\\u8fd9\\uff40e', u'CREATE TABLE pdownloads (_id INTEGER PRIMARY KEY,url TEXT,file TEXT,size INTEGER,total_size INTEGER,state INTEGER,file_name TEXT,network_info TEXT,download_mode INTEGER, eTag TEXT, creattime LONG DEFAULT ', u'k\\xdf\\xc9\\xdf\\xdej', u's\\xc6@Qe', u'getMessage', u'requestId', u'k\\xf5\\u0106\\xec\\xf3\\xe2\\xf0\\xe2\\xfd\\xdaj', u' [', u', description=', u'  ', u's\\xab\\x81\\x9a|\\xa2\\xa7}\\x8ae', u' %', u'k\\xee\\xd1\\xe5\\xdej', u'k\\xfej', u'k\\u6139\\u7a9e\\u5095\\u5476\\u9093\\u9054\\u68cd\\u97eb\\u4e7fj', u', currentId=', u'ctwap:cdma', u'application/vnd.an"
p60
sg5
S'CHANGED (JI 67.48%)'
p61
sg7
F67.480000000000004
sa(dp62
g3
S"\nDELETED set([])\n---\nADDED set(['Lcom/wohse/zuwreo/usevo/h;->ac Ljava/lang/String; [access_flags=public static final]\\n', 'Lcom/wohse/zuwreo/tklley/sowon/UawoWsinActivity;->n Landroid/view/View$OnClickListener; [access_flags=private]\\n', 'Lcom/wohse/zuwreo/usevo/as;->k I [access_flags=protected]\\n', 'Lcom/wohse/zuwreo/usevo/h;->bg Ljava/lang/String; [access_flags=public static final]\\n', 'Lcom/wohse/zuwreo/tklley/sowon/k;->e Ljava/lang/String; [access_flags=public]\\n', 'Lcom/wohse/zuwreo/usevo/h;->aj Ljava/lang/String; [access_flags=public static final]\\n', 'Lcom/wohse/zuwreo/usevo/s;->a Landroid/content/Context; [access_flags=synthetic final]\\n', 'Lcom/wohse/zuwreo/tklley/sowon/verso/l;->b Landroid/widget/LinearLayout$LayoutParams; [access_flags=synthetic final]\\n', 'Lcom/wohse/zuwreo/usevo/h;->ab Ljava/lang/String; [access_flags=public static final]\\n', 'Lcom/wohse/zuwreo/usevo/at;->w I [access_flags=protected]\\n', 'Lcom/wohse/zuwreo/tklley/sowon/ap;->M I [access_flags=protected]\\n', 'Lcom/wohse/zuwreo/usevo/a"
p63
sg5
S'CHANGED (JI 44.56%)'
p64
sg7
F44.560000000000002
sa.