(lp1
(dp2
S'detailed'
p3
S'EQUAL'
p4
sS'not_detailed'
p5
S'EQUAL'
p6
sS'score'
p7
I100
sa(dp8
g3
S'EQUAL'
p9
sg5
S'EQUAL'
p10
sg7
I100
sa(dp11
g3
S'EQUAL'
p12
sg5
S'EQUAL'
p13
sg7
I100
sa(dp14
g3
S'EQUAL'
p15
sg5
S'EQUAL'
p16
sg7
I100
sa(dp17
g3
S'EQUAL'
p18
sg5
S'EQUAL'
p19
sg7
I100
sa(dp20
g3
S'EQUAL'
p21
sg5
S'EQUAL'
p22
sg7
I100
sa(dp23
g3
S"\nDELETED set([])\n---\nADDED set(['android.permission.GET_TASKS', 'com.android.launcher.permission.INSTALL_SHORTCUT', 'android.permission.SYSTEM_ALERT_WINDOW'])"
p24
sg5
S'CHANGED (JI 82.35%)'
p25
sg7
F82.349999999999994
sa(dp26
g3
S'EQUAL'
p27
sg5
S'EQUAL'
p28
sg7
I100
sa(dp29
g3
S'EQUAL'
p30
sg5
S'EQUAL'
p31
sg7
I100
sa(dp32
g3
S"\nDELETED set([])\n---\nADDED set(['org.apache.soap.Sa', 'org.apache.pig.Ta', 'org.apache.common.Ca'])"
p33
sg5
S'CHANGED (JI 86.96%)'
p34
sg7
F86.959999999999994
sa(dp35
g3
S"\nDELETED set([u'META-INF/GLUANDRO.RSA', u'META-INF/GLUANDRO.SF', u'res/drawable-xxxhdpi/app_icon.png'])\n---\nADDED set(['res/drawable-640dpi/app_icon.png', 'META-INF/CERT.SF', 'META-INF/CERT.RSA'])"
p36
sg5
S'CHANGED (JI 96.47%)'
p37
sg7
F96.469999999999999
sa(dp38
g3
S"\nDELETED set([])\n---\nADDED set(['org.apache.soap.Ss', 'org.apache.pig.Ts', 'org.apache.common.Cs'])"
p39
sg5
S'CHANGED (JI 40.0%)'
p40
sg7
F40
sa(dp41
g3
S"\nDELETED set([])\n---\nADDED set(['org.apache.soap.Sr', 'org.apache.common.Cr', 'org.apache.pig.Tr'])"
p42
sg5
S'CHANGED (JI 50.0%)'
p43
sg7
F50
sa(dp44
g3
S"\nDELETED set([])\n---\nADDED set([u'Lorg/apache/pig/c/b;', u'Lorg/apache/pig/Ta;', u'Lorg/apache/soap/c/l;', u'Lorg/apache/common/e/a;', u'Lorg/apache/pig/ah;', u'Lorg/apache/common/b/i;', u'Lorg/apache/soap/a/e;', u'Lorg/apache/soap/Sm;', u'Lorg/apache/common/c/h;', u'Lorg/apache/pig/d;', u'Lorg/apache/common/m;', u'Lorg/apache/pig/at;', u'Lorg/apache/common/c/b;', u'Lorg/apache/soap/c/d;', u'Lorg/apache/pig/m;', u'Lorg/apache/common/d;', u'Landroid/widget/AdapterView;', u'Lorg/apache/soap/g;', u'Lorg/apache/common/a/h;', u'Lorg/apache/pig/ad;', u'Lorg/apache/common/b/d;', u'Lorg/apache/common/u;', u'Lorg/apache/pig/al;', u'Lorg/apache/common/d/i;', u'Lorg/apache/common/Ca;', u'Lorg/apache/pig/b/c;', u'Lorg/apache/soap/d/d;', u'Lorg/apache/soap/b/e;', u'Lorg/apache/pig/ay;', u'Landroid/graphics/ColorMatrixColorFilter;', u'Lorg/apache/pig/u;', u'Landroid/graphics/PointF;', u'Lorg/apache/common/e/b;', u'Lorg/apache/soap/c/e;', u'Lorg/apache/common/c/a;', u'Lorg/apache/soap/a/b;', u'Lorg/apache/pig/t;', u'Ljava/io/B"
p45
sg5
S'CHANGED (JI 95.75%)'
p46
sg7
F95.75
sa(dp47
g3
S"\nDELETED set([])\n---\nADDED set([u'Lorg/apache/pig/c/c;->a()V', u'Lorg/apache/pig/b;-><init>(Lorg/apache/pig/a; Landroid/content/Context; I I)V', u'Lorg/apache/common/f;->d(Lorg/apache/common/f;)I', u'Lorg/apache/pig/ay;->l(Landroid/content/Context;)Z', u'Lorg/apache/soap/c/h;->a(Landroid/content/Context; Ljava/io/File; Ljava/lang/String;)V', u'Lorg/apache/common/e/a;->c(Landroid/content/Context; I)Landroid/graphics/drawable/Drawable;', u'Lorg/apache/common/b/b;->onPostExecute(Ljava/lang/Object;)V', u'Lorg/apache/pig/a/b;->getCount()I', u'Lorg/apache/pig/p;-><init>(Lorg/apache/pig/o;)V', u'Lorg/apache/pig/a/a;-><init>(Landroid/content/Context; I)V', u'Lorg/apache/soap/a/b;->a(I Landroid/content/Context; Lorg/apache/soap/c/e; Ljava/util/List;)V', u'Lorg/apache/common/a/h;->s()V', u'Lorg/apache/soap/a/j;-><init>(Landroid/content/Context; Ljava/lang/String; Ljava/io/File; I I Ljava/lang/String; I Ljava/lang/String;)V', u'Lorg/apache/common/d/m;-><init>(Lorg/apache/common/d/k; J J)V', u'Lorg/apache/common/v;-><init>("
p48
sg5
S'CHANGED (JI 96.13%)'
p49
sg7
F96.129999999999995
sa(dp50
g3
S'EQUAL (JI 100%)'
p51
sg5
S'EQUAL (JI 100%)'
p52
sg7
I100
sa(dp53
g3
S"\nDELETED set([])\n---\nADDED set([u'Lorg/apache/pig/c/c;->a()V', u'Lorg/apache/pig/b;-><init>(Lorg/apache/pig/a; Landroid/content/Context; I I)V', u'Lorg/apache/common/d/a;->b()V', u'Lorg/apache/common/f;->d(Lorg/apache/common/f;)I', u'Lorg/apache/pig/ay;->l(Landroid/content/Context;)Z', u'Lorg/apache/common/l;->sendEmptyMessage(I)Z', u'Lorg/apache/common/e/a;->c(Landroid/content/Context; I)Landroid/graphics/drawable/Drawable;', u'Lorg/apache/common/b/b;->onPostExecute(Ljava/lang/Object;)V', u'Lorg/apache/common/e/h;->b(Landroid/content/Context; Ljava/lang/String; I)Landroid/content/pm/PackageInfo;', u'Lorg/apache/pig/p;-><init>(Lorg/apache/pig/o;)V', u'Lorg/apache/pig/d/e;->c(Landroid/content/Context; Ljava/lang/String;)Landroid/graphics/drawable/Drawable;', u'Lorg/apache/soap/a/b;->a(I Landroid/content/Context; Lorg/apache/soap/c/e; Ljava/util/List;)V', u'Lorg/apache/common/a/h;->s()V', u'Lorg/apache/soap/a/j;-><init>(Landroid/content/Context; Ljava/lang/String; Ljava/io/File; I I Ljava/lang/String; I Ljava/lang"
p54
sg5
S'CHANGED (JI 96.18%)'
p55
sg7
F96.180000000000007
sa(dp56
g3
S"\nDELETED set([])\n---\nADDED set([u'Landroid/widget/TextView;->setSingleLine(Z)V', u'Landroid/widget/ImageButton;->setTag(Ljava/lang/Object;)V', u'Landroid/graphics/Color;->rgb(I I I)I', u'Ljava/lang/Long;->valueOf(Ljava/lang/String;)Ljava/lang/Long;', u'Landroid/widget/TextView;->setPadding(I I I I)V', u'Landroid/view/WindowManager;->updateViewLayout(Landroid/view/View; Landroid/view/ViewGroup$LayoutParams;)V', u'Ljava/lang/StringBuffer;->append(Ljava/lang/Object;)Ljava/lang/StringBuffer;', u'Landroid/widget/ImageView;->setPadding(I I I I)V', u'Ljava/util/LinkedList;->contains(Ljava/lang/Object;)Z', u'Ljava/lang/Math;->hypot(D D)D', u'Landroid/widget/TextView;->setSelected(Z)V', u'Landroid/graphics/Canvas;->drawColor(I)V', u'Landroid/widget/RemoteViews;->getLayoutId()I', u'Landroid/app/Activity;->setContentView(Landroid/view/View;)V', u'Landroid/widget/ImageButton;->getWidth()I', u'Ljava/net/HttpURLConnection;->getHeaderFieldKey(I)Ljava/lang/String;', u'Landroid/widget/ImageView;->getId()I', u'Lorg/apache/http/Ht"
p57
sg5
S'CHANGED (JI 99.76%)'
p58
sg7
F99.760000000000005
sa(dp59
g3
S"\nDELETED set([])\n---\nADDED set([u'x\\xc9\\xd4\\xf7\\xdcy', u's\\xe5\\xf5\\xf4e', u's\\u7fc1\\u7f5f\\u5f8a\\u5ecd\\uff84\\u4e9c\\u9012\\u66fc\\u50d6e', u's\\xd3\\xeb\\xe9\\u0103\\xe6\\xf6\\u0101\\xa7\\xe3\\xf3e', u'x\\x9c\\u0109\\xeb\\xe2\\x9c\\xd4\\xfa\\u0112y', u'android.intent.category.HOME', u's\\xcc\\xe7\\xb3e', u'\\uff1a', u's\\u7fc1\\u7f5f\\u5f8a\\u5ecd\\uff84\\u4e9c\\u9012\\u7f42\\u6bdce', u'x\\xc7\\xde\\xec\\xda\\u010d\\xe2\\xe7\\xe7\\xce\\xfb\\u0100\\xfa\\xf7\\xac\\xe2\\xe9\\u0101\\u0104\\xb1\\xe8\\xe3\\xc8\\x9d\\xdb\\xd0\\xc7y', u'x\\xc0\\xe1\\xd9\\xcb\\xc8\\xd6\\xf0y', u's\\x9e\\xed\\xf8\\xfc\\xa6\\xf5\\xf6\\xeee', u'x\\xb9\\xca\\xa2y', u'x\\xd1\\u0105\\u010a\\xf9\\xea\\xe1\\xe2\\xde\\xd2\\u010a\\u010b\\u0101\\u010by', u'x\\xa8\\xa4\\x9c\\u0103\\xdc\\xefy', u'x\\xb7\\xb1\\xbf\\xce\\xb1\\xc0\\xa7\\xca\\xb9\\xc3y', u's\\xda\\xb0\\xf1\\xf9e', u's\\u547d\\u7a73e', u'x\\xca\\xe2\\xe0\\xfb\\xfa\\xe0\\u0106\\xd7\\xf7\\xb4\\xa9\\u0103\\xc4\\xf0\\xe3\\xea\\xff\\xf4\\xe7\\xf9\\u0104\\xd5\\u0104\\xf6\\xfe\\u010d\\xcby', u'x\\xdb\\u0102\\xfc\\xf4\\xaf\\xf5\\u0100y', u'x\\xd7\\xeb\\xea\\xcf\\u010fy', u' %', u'x\\xde\\xf2\\xd7y', u'x\\xfa\\u010a\\u0106\\xe8\\xd8\\xd3\\xec\\xd4\\xfa\\xf9\\u0"
p60
sg5
S'CHANGED (JI 94.94%)'
p61
sg7
F94.939999999999998
sa(dp62
g3
S"\nDELETED set([])\n---\nADDED set(['Lorg/apache/soap/c/b;->bp Ljava/lang/String; [access_flags=public static final]\\n', 'Lorg/apache/common/d/s;->i Landroid/graphics/PointF; [access_flags=0x0]\\n', 'Lorg/apache/common/b/k;->w I [access_flags=public]\\n', 'Lorg/apache/pig/o;->a Landroid/widget/ImageButton; [access_flags=private]\\n', 'Lorg/apache/pig/d/a;->c Ljava/util/Map; [access_flags=private static]\\n', 'Lorg/apache/pig/v;->g I [access_flags=public]\\n', 'Lorg/apache/pig/h;->bs Ljava/lang/String; [access_flags=public static final]\\n', 'Lorg/apache/soap/c/b;->bF Ljava/lang/String; [access_flags=public static final]\\n', 'Lorg/apache/pig/v;->a Ljava/lang/String; [access_flags=public]\\n', 'Lorg/apache/soap/c/b;->h Ljava/lang/String; [access_flags=public static final]\\n', 'Lorg/apache/pig/h;->bE Ljava/lang/String; [access_flags=public static final]\\n', 'Lorg/apache/pig/aj;->M Ljava/lang/String; [access_flags=protected]\\n', 'Lorg/apache/soap/c/b;->au Ljava/lang/String; [access_flags=public static final]\\n', 'Lorg/apache/c"
p63
sg5
S'CHANGED (JI 87.92%)'
p64
sg7
F87.920000000000002
sa.