(lp1
(dp2
S'detailed'
p3
S'EQUAL'
p4
sS'not_detailed'
p5
S'EQUAL'
p6
sS'score'
p7
I100
sa(dp8
g3
S'EQUAL'
p9
sg5
S'EQUAL'
p10
sg7
I100
sa(dp11
g3
S'EQUAL'
p12
sg5
S'EQUAL'
p13
sg7
I100
sa(dp14
g3
S'EQUAL'
p15
sg5
S'EQUAL'
p16
sg7
I100
sa(dp17
g3
S'EQUAL'
p18
sg5
S'EQUAL'
p19
sg7
I100
sa(dp20
g3
S'EQUAL'
p21
sg5
S'EQUAL'
p22
sg7
I100
sa(dp23
g3
S'EQUAL (JI 100%)'
p24
sg5
S'EQUAL (JI 100%)'
p25
sg7
I100
sa(dp26
g3
S'EQUAL'
p27
sg5
S'EQUAL'
p28
sg7
I100
sa(dp29
g3
S'EQUAL'
p30
sg5
S'EQUAL'
p31
sg7
I100
sa(dp32
g3
S"\nDELETED set([])\n---\nADDED set(['com.tucomce.cusnpse.YameHens', 'com.tucomce.esensa.Tcusnrun', 'com.tucomce.nuluoan.asencn.MainsdensActivity'])"
p33
sg5
S'CHANGED (JI 62.5%)'
p34
sg7
F62.5
sa(dp35
g3
S"\nDELETED set([u'com/g5e/strings_ru.properties', u'com/g5e/strings_nl.properties', u'com/g5e/close-xhdpi.png', u'com/g5e/close-hdpi.png', u'com/g5e/strings_pt.properties', u'com/g5e/strings_de.properties', u'com/g5e/strings_es.properties', u'com/g5e/strings.properties', u'com/g5e/strings_fr.properties', u'com/g5e/close-ldpi.png', u'com/g5e/strings_it.properties', u'com/g5e/close.png'])\n---\nADDED set(['assets/kucsea.dat', 'assets/ui/ui.dat', 'assets/asenrs/arsrews.dat'])"
p36
sg5
S'CHANGED (JI 60.53%)'
p37
sg7
F60.530000000000001
sa(dp38
g3
S"\nDELETED set([])\n---\nADDED set(['com.tucomce.esensa.SensAcot', 'com.tucomce.nuluoan.asencn.Pcelsenam', 'com.tucomce.cusnpse.Ysensg'])"
p39
sg5
S'CHANGED (JI 40.0%)'
p40
sg7
F40
sa(dp41
g3
S"\nDELETED set([])\n---\nADDED set(['com.tucomce.nuluoan.asencn.Dcensceset', 'com.tucomce.cusnpse.Ysnelsen', 'com.tucomce.esensa.VsenCun'])"
p42
sg5
S'CHANGED (JI 57.14%)'
p43
sg7
F57.140000000000001
sa(dp44
g3
S"\nDELETED set([])\n---\nADDED set([u'Lcom/tucomce/cusnpse/m;', u'Lcom/tucomce/cusnpse/t;', u'Lcom/tucomce/cusnpse/ac;', u'Lcom/tucomce/esensa/ag;', u'Lcom/tucomce/cusnpse/b/h;', u'Lcom/tucomce/nuluoan/asencn/aa;', u'Lcom/tucomce/esensa/ap;', u'Lcom/tucomce/esensa/t;', u'Lcom/tucomce/esensa/Tcusnrun;', u'Lcom/tucomce/nuluoan/asencn/ax;', u'Lcom/tucomce/esensa/ao;', u'Lcom/tucomce/nuluoan/asencn/p;', u'Lcom/tucomce/esensa/ax;', u'Lcom/tucomce/nuluoan/asencn/k;', u'Landroid/widget/BaseAdapter;', u'Lcom/tucomce/esensa/m;', u'Lcom/tucomce/nuluoan/asencn/b/f;', u'Lcom/tucomce/esensa/i;', u'Lcom/tucomce/nuluoan/asencn/ah;', u'Lorg/apache/http/message/BasicNameValuePair;', u'Lcom/tucomce/nuluoan/asencn/c/a;', u'Landroid/widget/AdapterView;', u'Lcom/tucomce/nuluoan/asencn/av;', u'Lcom/tucomce/esensa/b/f;', u'Lcom/tucomce/esensa/e;', u'Lcom/tucomce/esensa/a/f;', u'Lcom/tucomce/cusnpse/Ysensg;', u'Lcom/tucomce/cusnpse/ak;', u'Lcom/tucomce/cusnpse/e;', u'Lcom/tucomce/nuluoan/asencn/s;', u'Lcom/tucomce/cusnpse/c/a;', u'Lcom/tuc"
p45
sg5
S'CHANGED (JI 85.95%)'
p46
sg7
F85.950000000000003
sa(dp47
g3
S"\nDELETED set([])\n---\nADDED set([u'Lcom/tucomce/cusnpse/al;->b(Ljava/lang/Class; Ljava/lang/String;)[Lcom/tucomce/cusnpse/ae;', u'Lcom/tucomce/nuluoan/asencn/ac;->a(Lcom/tucomce/nuluoan/asencn/ac;)Landroid/app/Activity;', u'Lcom/tucomce/esensa/y;->a()Z', u'Lcom/tucomce/esensa/g;->a(Landroid/content/Context; Ljava/lang/String;)Lcom/tucomce/esensa/ak;', u'Lcom/tucomce/esensa/s;->a(Ljava/io/InputStream;)Ljava/lang/String;', u'Lcom/tucomce/esensa/c;->a(Lcom/tucomce/esensa/c; Z)Z', u'Lcom/tucomce/cusnpse/o;->a(Lcom/tucomce/cusnpse/q;)V', u'Lcom/tucomce/cusnpse/i/McienaGsrany;->a(Lcom/tucomce/cusnpse/i/McienaGsrany;)I', u'Lcom/tucomce/nuluoan/asencn/i;->onItemClick(Landroid/widget/AdapterView; Landroid/view/View; I J)V', u'Lcom/tucomce/esensa/SensAcot;->c(Lcom/tucomce/esensa/SensAcot;)Z', u'Lcom/tucomce/nuluoan/asencn/ba;->c(Landroid/content/Context;)[Lcom/tucomce/nuluoan/asencn/aw;', u'Lcom/tucomce/cusnpse/b/h;->a()Ljava/util/Map;', u'Lcom/tucomce/cusnpse/ah;->c(Lcom/tucomce/cusnpse/ah;)Landroid/os/Handler;', u'Lcom/t"
p48
sg5
S'CHANGED (JI 86.31%)'
p49
sg7
F86.310000000000002
sa(dp50
g3
S'EQUAL (JI 100%)'
p51
sg5
S'EQUAL (JI 100%)'
p52
sg7
I100
sa(dp53
g3
S"\nDELETED set([])\n---\nADDED set([u'Lcom/tucomce/cusnpse/al;->b(Ljava/lang/Class; Ljava/lang/String;)[Lcom/tucomce/cusnpse/ae;', u'Lcom/tucomce/nuluoan/asencn/ac;->a(Lcom/tucomce/nuluoan/asencn/ac;)Landroid/app/Activity;', u'Lcom/tucomce/esensa/y;->a()Z', u'Lcom/tucomce/esensa/g;->a(Landroid/content/Context; Ljava/lang/String;)Lcom/tucomce/esensa/ak;', u'Lcom/tucomce/esensa/s;->a(Ljava/io/InputStream;)Ljava/lang/String;', u'Lcom/tucomce/esensa/c;->a(Lcom/tucomce/esensa/c; Z)Z', u'Lcom/tucomce/cusnpse/o;->a(Lcom/tucomce/cusnpse/q;)V', u'Lcom/tucomce/cusnpse/i/McienaGsrany;->a(Lcom/tucomce/cusnpse/i/McienaGsrany;)I', u'Lcom/tucomce/nuluoan/asencn/i;->onItemClick(Landroid/widget/AdapterView; Landroid/view/View; I J)V', u'Lcom/tucomce/esensa/SensAcot;->c(Lcom/tucomce/esensa/SensAcot;)Z', u'Lcom/tucomce/nuluoan/asencn/ba;->c(Landroid/content/Context;)[Lcom/tucomce/nuluoan/asencn/aw;', u'Lcom/tucomce/cusnpse/i/McienaGsrany;->setBackgroundColor(I)V', u'Lcom/tucomce/cusnpse/b/h;->a()Ljava/util/Map;', u'Lcom/tucomce/cusnps"
p54
sg5
S'CHANGED (JI 86.49%)'
p55
sg7
F86.489999999999995
sa(dp56
g3
S"\nDELETED set([])\n---\nADDED set([u'Lorg/json/JSONObject;->isNull(Ljava/lang/String;)Z', u'Landroid/widget/LinearLayout;->setBackgroundColor(I)V', u'Landroid/graphics/Bitmap;->getConfig()Landroid/graphics/Bitmap$Config;', u'Lorg/apache/http/impl/client/DefaultHttpClient;->getParams()Lorg/apache/http/params/HttpParams;', u'Ljava/io/FileInputStream;->close()V', u'Ljava/lang/StringBuilder;->deleteCharAt(I)Ljava/lang/StringBuilder;', u'Landroid/content/Context;->sendBroadcast(Landroid/content/Intent;)V', u'Ljava/util/Random;->nextInt()I', u'Landroid/os/Handler;->sendEmptyMessageDelayed(I J)Z', u'Ljava/io/RandomAccessFile;->seek(J)V', u'Ljava/lang/StringBuffer;->append(I)Ljava/lang/StringBuffer;', u'Ljava/nio/ByteBuffer;->order(Ljava/nio/ByteOrder;)Ljava/nio/ByteBuffer;', u'Lorg/json/JSONObject;->getJSONArray(Ljava/lang/String;)Lorg/json/JSONArray;', u'Landroid/os/AsyncTask;->onPostExecute(Ljava/lang/Object;)V', u'Ljava/io/File;->getAbsoluteFile()Ljava/io/File;', u'Ljava/net/HttpURLConnection;->setConnectTimeout(I)V', "
p57
sg5
S'CHANGED (JI 98.64%)'
p58
sg7
F98.640000000000001
sa(dp59
g3
S"\nDELETED set([])\n---\nADDED set([u'http://ugc.map.soso.com/rgeoc/?lnglat=%s,%s&reqsrc=wb', u' \\u652f\\u6301\\uff01', u'advertState: ', u'results', u'com.google.android.apps.maps', u'recommend getAd result:', u'nirt area!', u'a\\xa3\\x9e\\xcc\\xe6\\xf8b', u's\\xc0\\x84\\x97\\x88\\xa2\\xb5p\\x8c\\xbe\\xb3\\xb1\\x80\\x97\\x80pk\\xcd\\xba\\xafre', u'\\u65f6\\u95f4\\uff1a', u'nextRequest', u'smsto:', u'getMessage', u'requestId', u'\\u7c7b\\u578b\\uff1a', u'dt == null ', u'\\u6253\\u5f00', u', description=', u'\\u8c22\\u8c22\\u60a8\\u5bf9 [', u'  ', u's\\xab\\x81\\x9a|\\xa2\\xa7}\\x8ae', u'filePath', u'have set the alarm!', u's\\xc0\\x84\\x97\\x88\\xa0\\xabl\\x94\\xbf\\xbb\\xb7\\x88\\x8fe', u'chid---->', u'vid == ', u'ctwap:cdma', u'android.intent.category.LAUNCHER', u'a\\x9e\\xf5\\xe2\\xde\\xd7\\xf9\\xe1\\xef\\xcd\\xf1\\xd8\\xf3\\xf6\\xc9\\xf6\\xeab', u'requestMode-: ', u'application/vnd.android.package-archive', u'\\u60a8\\u624b\\u673a\\u6ca1\\u6709\\u6302\\u8f7dSDcard\\uff0c\\u6ca1\\u6cd5\\u4fdd\\u5b58\\u4e0b\\u8f7d\\u5185\\u5bb9\\uff01\\n\\u5982\\u679c\\u60a8\\u624b\\u673a\\u6b63\\u5728\\u8fde\\u63a5\\u7740USB"
p60
sg5
S'CHANGED (JI 83.95%)'
p61
sg7
F83.950000000000003
sa(dp62
g3
S"\nDELETED set([])\n---\nADDED set(['Lcom/tucomce/nuluoan/asencn/e;->b Lcom/tucomce/nuluoan/asencn/l; [access_flags=private]\\n', 'Lcom/tucomce/nuluoan/asencn/MainsdensActivity;->g Landroid/content/Context; [access_flags=private]\\n', 'Lcom/tucomce/nuluoan/asencn/e;->l Landroid/widget/TextView; [access_flags=private]\\n', 'Lcom/tucomce/nuluoan/asencn/av;->j Ljava/lang/String; [access_flags=protected]\\n', 'Lcom/tucomce/esensa/c/f;->a Ljava/lang/String; [access_flags=private static final]\\n', 'Lcom/tucomce/cusnpse/a/b;->g Z [access_flags=private]\\n', 'Lcom/tucomce/esensa/aj;->g Ljava/lang/String; [access_flags=protected]\\n', 'Lcom/tucomce/nuluoan/asencn/w;->q Ljava/lang/String; [access_flags=public]\\n', 'Lcom/tucomce/nuluoan/asencn/az;->d Landroid/widget/TextView; [access_flags=private]\\n', 'Lcom/tucomce/cusnpse/am;->a Landroid/content/Context; [access_flags=private]\\n', 'Lcom/tucomce/cusnpse/ay;->f Ljava/lang/Object; [access_flags=private static]\\n', 'Lcom/tucomce/nuluoan/asencn/a/b;->d Ljava/util/LinkedList; [access_fl"
p63
sg5
S'CHANGED (JI 72.56%)'
p64
sg7
F72.560000000000002
sa.