(lp1
(dp2
S'detailed'
p3
S'DIFFERENT: 1!=2100'
p4
sS'not_detailed'
p5
S'CHANGED'
p6
sS'score'
p7
I0
sa(dp8
g3
S'DIFFERENT: 1.0!=1.0.0'
p9
sg5
S'CHANGED'
p10
sg7
I0
sa(dp11
g3
S'EQUAL'
p12
sg5
S'EQUAL'
p13
sg7
I100
sa(dp14
g3
S'EQUAL'
p15
sg5
S'EQUAL'
p16
sg7
I100
sa(dp17
g3
S'DIFFERENT: 15!=17'
p18
sg5
S'CHANGED'
p19
sg7
I0
sa(dp20
g3
S'DIFFERENT: 15!=17'
p21
sg5
S'CHANGED'
p22
sg7
I0
sa(dp23
g3
S"\nDELETED set([])\n---\nADDED set(['android.permission.VIBRATE', 'android.permission.ACCESS_WIFI_STATE', 'android.permission.WAKE_LOCK', 'android.permission.GET_TASKS', 'com.android.vending.CHECK_LICENSE', 'android.permission.WRITE_EXTERNAL_STORAGE'])"
p24
sg5
S'CHANGED (JI 33.33%)'
p25
sg7
F33.329999999999998
sa(dp26
g3
S'DIFFERENT: com.rex.lacucaracha2!=com.crescentmoongames.siegecraftdefender'
p27
sg5
S'CHANGED'
p28
sg7
I0
sa(dp29
g3
S'DIFFERENT: La Cucaracha II!=Siegecraft Defender'
p30
sg5
S'CHANGED'
p31
sg7
I0
sa(dp32
g3
S"\nDELETED set(['com.ansca.corona.CameraActivity', 'com.openfeint.internal.ui.Settings', 'com.zong.android.engine.web.ZongWebView', 'com.adknowledge.superrewards.ui.activities.SRPaymentMethodsActivity', 'com.ansca.corona.VideoActivity', 'com.openfeint.internal.ui.IntroFlow', 'com.ansca.corona.CoronaActivity', 'com.openfeint.internal.ui.NativeBrowser', 'com.adknowledge.superrewards.ui.activities.SRWebViewActivity', 'com.adknowledge.superrewards.ui.activities.SROfferPaymentActivity', 'com.openfeint.api.ui.Dashboard', 'com.adknowledge.superrewards.ui.activities.SRDirectPaymentActivity'])\n---\nADDED set(['com.prime31.FacebookProxyActivity', 'com.bfsgooglegames.GoogleGamesUnityPlayerProxyActivity', 'com.facebook.LoginActivity', 'com.prime31.WebViewActivity', 'com.unity3d.plugin.downloader.UnityDownloaderActivity', 'com.prime31.P31VideoPlayerActivity', 'com.bfsgooglegames.GoogleGamesUnityPlayerActivity', 'com.prime31.EtceteraProxyActivity', 'com.bfsgooglegames.GoogleGamesUnityPlayerNativeActivity'])"
p33
sg5
S'CHANGED (JI 0.0%)'
p34
sg7
F0
sa(dp35
g3
S"\nDELETED set(['assets/LC_BandGlitter4.png', 'assets/threatLizardSpriteSheet.png', 'lib/armeabi-v7a/libmpg123.so', 'res/drawable/of_native_loader_progress_01.png', 'assets/CONTINUEselect.png', 'assets/LC_Story9.png', 'assets/progressBenny.png', 'assets/7.png', 'assets/sfx_superfood_boost.mp3', 'assets/8.png', 'com/google/i18n/phonenumbers/data/PhoneNumberMetadataProto_MP', 'com/google/i18n/phonenumbers/data/PhoneNumberMetadataProto_WS', 'assets/foodSuperSpriteSheet.png', 'res/layout-xlarge/', 'res/drawable/of_native_loader.png', 'com/google/i18n/phonenumbers/data/PhoneNumberMetadataProto_WF', 'res/layout/', 'res/drawable/sr_install_tab_icon.png', 'assets/threatTorchSpriteSheet.png', 'assets/sfx_snake_hiss.mp3', 'assets/LC_Story2.png', 'assets/bennyShadow.png', 'com/google/i18n/phonenumbers/data/PhoneNumberMetadataProto_ZW', 'res/drawable-hdpi/icon.png', 'com/google/i18n/phonenumbers/data/PhoneNumberMetadataProto_ZM', 'com/google/i18n/phonenumbers/data/PhoneNumberMetadataProto_ZA', 'assets/LC_Sto\n---\nADDED set([u'res/drawable/com_facebook_icon.png', u'res/drawable-xhdpi/com_facebook_button_grey_pressed.9.png', u'res/drawable/com_facebook_list_section_header_background.9.png', u'assets/bin/Data/sharedassets0.assets.split3', u'assets/bin/Data/sharedassets0.assets.split2', u'assets/bin/Data/sharedassets0.assets.split1', u'assets/bin/Data/sharedassets0.assets.split0', u'res/drawable-ldpi/app_icon.png', u'res/drawable-hdpi/com_facebook_logo.png', u'assets/bin/Data/Managed/Assembly-UnityScript-firstpass.dll', u'res/drawable/com_facebook_button_check.xml', u'res/drawable/com_facebook_loginbutton_blue_focused.png', u'res/layout/com_facebook_picker_list_section_header.xml', u'res/drawable/com_facebook_picker_list_pressed.9.png', u'res/drawable-ldpi/com_facebook_icon.png', u'res/drawable/com_facebook_picker_list_selector.xml', u'lib/armeabi-v7a/libunity.so', u'assets/bin/Data/unity default resources', u'res/drawable/com_facebook_profile_default_icon.png', u'assets/bin/Data/Managed/System.Security."
p36
sg5
S'CHANGED (JI 0.63%)'
p37
sg7
F0.63
sa(dp38
g3
S"\nDELETED set(['com.zong.android.engine.process.ZongServiceProcess'])\n---\nADDED set(['com.unity3d.plugin.downloader.UnityDownloaderService'])"
p39
sg5
S'CHANGED (JI 0.0%)'
p40
sg7
F0
sa(dp41
g3
S"\nDELETED set(['com.ansca.corona.purchasing.GoogleStoreBroadcastReceiver'])\n---\nADDED set(['com.unity3d.plugin.downloader.UnityAlarmReceiver', 'com.prime31.AlarmManagerReceiver'])"
p42
sg5
S'CHANGED (JI 0.0%)'
p43
sg7
F0
sa(dp44
g3
S"\nDELETED set([u'Lcom/ansca/corona/ViewManager;', u'Lcom/openfeint/api/resource/Leaderboard$6;', u'Lcom/adknowledge/superrewards/xml/parser/OffersXMLParser$19;', u'Lcom/ansca/corona/CoronaSensorManager$AccelerometerMonitor$TimerHandler;', u'Lcom/openfeint/api/resource/User$11;', u'Lcom/openfeint/internal/ui/WebViewCacheCallback;', u'Lcom/ansca/corona/AdManager$CoronaInneractiveAdListener$ChangeInneractiveVisibilityOperation;', u'Lcom/naef/jnlua/JavaModule$IPairs$ArrayNext;', u'Ljava/util/Calendar;', u'Lcom/ansca/corona/Controller$4;', u'Lcom/naef/jnlua/script/LuaScriptEngine$ReaderInputStream;', u'Lcom/openfeint/api/resource/Achievement$2;', u'[Lcom/naef/jnlua/LuaType;', u'Lcom/flurry/android/c;', u'Lcom/ansca/corona/purchasing/StoreProxy;', u'Lcom/naef/jnlua/JavaModule$Proxy;', u'Lcom/ansca/corona/CoronaWebView$1;', u'Lcom/openfeint/api/resource/CurrentUser;', u'Lcom/naef/jnlua/DefaultJavaReflector$LessThan;', u'Ljava/nio/charset/CharsetEncoder;', u'Lcom/adknowledge/superrewards/ui/adapter/SRIn\n---\nADDED set([u'Landroid/view/accessibility/AccessibilityEvent;', u'Landroid/support/v4/widget/SearchViewCompatHoneycomb$1;', u'Lcom/unity3d/plugin/downloader/b/p;', u'Lcom/google/android/gms/maps/model/LatLngBounds;', u'Lcom/google/android/gms/internal/cn$a$a;', u'Lcom/prime31/EtceteraPlugin$23;', u'Lcom/google/android/gms/internal/bj$q;', u'Lcom/unity3d/plugin/downloader/a/a;', u'Lcom/unity3d/player/UnityPlayer$17;', u'Lcom/facebook/widget/PickerFragment$4;', u'Lcom/facebook/TestSession$FqlResponse;', u'Ljava/util/concurrent/BlockingQueue;', u'Lcom/unity3d/player/g$1;', u'Lcom/unity3d/player/k;', u'Lcom/unity3d/plugin/downloader/UnityDownloaderService;', u'Lcom/google/android/gms/location/ActivityRecognitionResultCreator;', u'Lcom/google/android/gms/internal/bj$al;', u'Lcom/google/android/gms/internal/dy$e;', u'Landroid/support/v4/app/FragmentManager$OnBackStackChangedListener;', u'Landroid/media/AudioTrack;', u'Lcom/bfsgooglegames/GameHelper$13;', u'Lcom/google/android/gms/location/LocationL"
p45
sg5
S'CHANGED (JI 9.45%)'
p46
sg7
F9.4499999999999993
sa(dp47
g3
S"\nDELETED set([u'Lcom/naef/jnlua/script/LuaScriptEngine;->loadChunk(Ljava/lang/String; Ljavax/script/ScriptContext;)V', u'Lcom/inmobi/androidsdk/impl/UserInfo;->getSiteId()Ljava/lang/String;', u'Lcom/openfeint/internal/ui/IntroFlow$IntroFlowActionHandler;->getEmail(Ljava/util/Map;)V', u'Lcom/adknowledge/superrewards/model/SROffer;->setGeoAvailability(Ljava/lang/String;)V', u'Lorg/apache/commons/codec/binary/StringUtils;->getBytesUtf16Le(Ljava/lang/String;)[B', u'Lcom/zong/android/engine/task/PaymentProcessorTask;->c()Ljava/lang/String;', u'Lcom/openfeint/internal/ui/WebViewCache$ManifestItem;-><init>(Ljava/lang/String; Ljava/lang/String;)V', u'Lcom/openfeint/internal/resource/LongResourceProperty;->copy(Lcom/openfeint/internal/resource/Resource; Lcom/openfeint/internal/resource/Resource;)V', u'Lcom/ansca/corona/Controller;->saveBitmap(Landroid/graphics/Bitmap; Landroid/net/Uri;)Z', u'Lcom/ansca/corona/Controller;->setIdleTimer(Z)V', u'Lzongfuscated/w$3;-><init>(Lcom/zong/android/engine/xml/pojo/\n---\nADDED set([u'Landroid/support/v4/app/ListFragment;->setListShown(Z)V', u'Lcom/facebook/model/GraphObject$Factory$GraphObjectListImpl;->put(I Ljava/lang/Object;)V', u'Lcom/facebook/widget/WebDialog;->setUpWebView(I)V', u'Lcom/google/android/gms/internal/bl$a$a;->j(Lcom/google/android/gms/internal/k;)V', u'Lcom/facebook/widget/PlacePickerFragment$SearchTextWatcher;-><init>(Lcom/facebook/widget/PlacePickerFragment; Lcom/facebook/widget/PlacePickerFragment$SearchTextWatcher;)V', u'Lcom/google/android/gms/maps/GoogleMap$9;-><init>(Lcom/google/android/gms/maps/GoogleMap; Lcom/google/android/gms/maps/GoogleMap$OnMyLocationChangeListener;)V', u'Lcom/google/android/gms/internal/bj$ai;->s(Lcom/google/android/gms/internal/k;)V', u'Lcom/google/android/gms/internal/cc$a$a;->a(Lcom/google/android/gms/location/LocationRequest; Landroid/app/PendingIntent;)V', u'Lorg/json/simple/parser/JSONParser;->parse(Ljava/lang/String;)Ljava/lang/Object;', u'Lcom/unity3d/player/j;->a()I', u'Landroid/support/v4/app/Fragme"
p48
sg5
S'CHANGED (JI 0.37%)'
p49
sg7
F0.37
sa(dp50
g3
S"\nDELETED set([u'Lcom/facebook/android/Facebook$1;-><init>(Lcom/facebook/android/Facebook;)V', u'Lcom/facebook/android/Facebook$1;->onFacebookError(Lcom/facebook/android/FacebookError;)V', u'Lcom/facebook/android/FbDialog;->access$000(Lcom/facebook/android/FbDialog;)Lcom/facebook/android/Facebook$DialogListener;', u'Lcom/facebook/android/FbDialog;->access$200(Lcom/facebook/android/FbDialog;)Landroid/app/ProgressDialog;', u'Lcom/facebook/android/Facebook;->startDialogAuth(Landroid/app/Activity; [Ljava/lang/String;)V', u'Lcom/facebook/android/Facebook;->getAppId()Ljava/lang/String;', u'Lcom/facebook/android/FbDialog;->setUpWebView(I)V', u'Lcom/facebook/android/Facebook$1;->onError(Lcom/facebook/android/DialogError;)V', u'Lcom/facebook/android/Facebook;->startSingleSignOn(Landroid/app/Activity; Ljava/lang/String; [Ljava/lang/String; I)Z', u'Lcom/facebook/android/Util;->clearCookies(Landroid/content/Context;)V', u'Lcom/facebook/android/Facebook;->access$000(Lcom/facebook/android/Facebook;)Lcom/faceb\n---\nADDED set([u'Lcom/facebook/android/Facebook;->extendAccessTokenIfNeeded(Landroid/content/Context; Lcom/facebook/android/Facebook$ServiceListener;)Z', u'Lcom/facebook/android/Facebook;->access$11(Lcom/facebook/android/Facebook; Lcom/facebook/Session; Lcom/facebook/SessionState; Ljava/lang/Exception; Lcom/facebook/android/Facebook$DialogListener;)V', u'Lcom/facebook/android/Facebook;->setTokenFromCache(Ljava/lang/String; J J)V', u'Lcom/facebook/android/Facebook;->onSessionCallback(Lcom/facebook/Session; Lcom/facebook/SessionState; Ljava/lang/Exception; Lcom/facebook/android/Facebook$DialogListener;)V', u'Lcom/facebook/android/Facebook;->access$5(Lcom/facebook/android/Facebook;)J', u'Lcom/facebook/android/FbDialog$1;->onComplete(Landroid/os/Bundle; Lcom/facebook/FacebookException;)V', u'Lcom/facebook/android/Facebook;->getAttributionId(Landroid/content/ContentResolver;)Ljava/lang/String;', u'Lcom/facebook/android/Facebook;->publishInstall(Landroid/content/Context;)Z', u'Lcom/facebook/android/Fa"
p51
sg5
S'CHANGED (JI 45.83%)'
p52
sg7
F45.829999999999998
sa(dp53
g3
S"\nDELETED set([u'Lcom/openfeint/api/resource/User$GetFriendsCB;->onFailure(Ljava/lang/String;)V', u'Lcom/naef/jnlua/script/LuaScriptEngine;->loadChunk(Ljava/lang/String; Ljavax/script/ScriptContext;)V', u'Lcom/inmobi/androidsdk/impl/UserInfo;->getSiteId()Ljava/lang/String;', u'Lcom/adknowledge/superrewards/model/SROffer;->setGeoAvailability(Ljava/lang/String;)V', u'Lorg/apache/commons/codec/binary/StringUtils;->getBytesUtf16Le(Ljava/lang/String;)[B', u'Lcom/zong/android/engine/task/PaymentProcessorTask;->c()Ljava/lang/String;', u'Lcom/openfeint/internal/ui/WebViewCache$ManifestItem;-><init>(Ljava/lang/String; Ljava/lang/String;)V', u'Landroid/webkit/WebView;->loadDataWithBaseURL(Ljava/lang/String; Ljava/lang/String; Ljava/lang/String; Ljava/lang/String; Ljava/lang/String;)V', u'Lzongfuscated/F;->a(Ljava/lang/Boolean;)V', u'Lcom/openfeint/internal/resource/LongResourceProperty;->copy(Lcom/openfeint/internal/resource/Resource; Lcom/openfeint/internal/resource/Resource;)V', u'Lcom/ansca/corona/Cont\n---\nADDED set([u'Landroid/support/v4/app/ListFragment;->setListShown(Z)V', u'Landroid/widget/TextView;->setTextAppearance(Landroid/content/Context; I)V', u'Landroid/view/accessibility/AccessibilityRecord;->setToIndex(I)V', u'Lcom/facebook/widget/WebDialog;->setUpWebView(I)V', u'Landroid/app/Fragment;->onLowMemory()V', u'Lcom/google/android/gms/internal/bl$a$a;->j(Lcom/google/android/gms/internal/k;)V', u'Lcom/facebook/widget/PlacePickerFragment$SearchTextWatcher;-><init>(Lcom/facebook/widget/PlacePickerFragment; Lcom/facebook/widget/PlacePickerFragment$SearchTextWatcher;)V', u'Lcom/google/android/gms/maps/GoogleMap$9;-><init>(Lcom/google/android/gms/maps/GoogleMap; Lcom/google/android/gms/maps/GoogleMap$OnMyLocationChangeListener;)V', u'Lcom/google/android/gms/internal/eq$b$b;->by()Ljava/util/Set;', u'Landroid/content/Intent;->setAction(Ljava/lang/String;)Landroid/content/Intent;', u'Lcom/google/android/gms/internal/bg;->c(Ljava/lang/String;)Landroid/net/Uri;', u'Lcom/facebook/model/GraphObject$"
p54
sg5
S'CHANGED (JI 5.02%)'
p55
sg7
F5.0199999999999996
sa(dp56
g3
S"\nDELETED set([u'Landroid/widget/Toast;-><init>(Landroid/content/Context;)V', u'Lorg/json/JSONArray;->getJSONObject(I)Lorg/json/JSONObject;', u'Ljava/lang/Float;->isNaN(F)Z', u'Landroid/webkit/WebSettings;->setDomStorageEnabled(Z)V', u'Landroid/webkit/WebView;->loadDataWithBaseURL(Ljava/lang/String; Ljava/lang/String; Ljava/lang/String; Ljava/lang/String; Ljava/lang/String;)V', u'Landroid/app/ActivityManager;->getMemoryInfo(Landroid/app/ActivityManager$MemoryInfo;)V', u'Landroid/location/Location;->getSpeed()F', u'Ljavax/microedition/khronos/egl/EGL10;->eglSwapBuffers(Ljavax/microedition/khronos/egl/EGLDisplay; Ljavax/microedition/khronos/egl/EGLSurface;)Z', u'Landroid/view/Display;->getRotation()I', u'Ljava/lang/Character;->charValue()C', u'Landroid/database/sqlite/SQLiteOpenHelper;->close()V', u'Ljava/io/File;-><init>(Ljava/lang/String; Ljava/lang/String;)V', u'Ljava/lang/Character;->digit(C I)I', u'Lorg/apache/http/client/methods/HttpGet;-><init>()V', u'Ljava/lang/Character;->isDefined(I)Z', \n---\nADDED set([u'Ljava/util/List;->indexOf(Ljava/lang/Object;)I', u'Landroid/widget/TextView;->setTextAppearance(Landroid/content/Context; I)V', u'Lcom/facebook/android/Facebook;->extendAccessTokenIfNeeded(Landroid/content/Context; Lcom/facebook/android/Facebook$ServiceListener;)Z', u'Landroid/widget/FrameLayout;->onTouchEvent(Landroid/view/MotionEvent;)Z', u'Landroid/hardware/Camera;->setPreviewCallbackWithBuffer(Landroid/hardware/Camera$PreviewCallback;)V', u'Landroid/content/Intent;->setAction(Ljava/lang/String;)Landroid/content/Intent;', u'Ljava/lang/Float;->floatToIntBits(F)I', u'Landroid/os/Looper;->myLooper()Landroid/os/Looper;', u'Lcom/facebook/android/Facebook;->onSessionCallback(Lcom/facebook/Session; Lcom/facebook/SessionState; Ljava/lang/Exception; Lcom/facebook/android/Facebook$DialogListener;)V', u'Ljava/util/Arrays;->sort([I)V', u'Landroid/webkit/WebSettings;->setGeolocationEnabled(Z)V', u'Landroid/webkit/WebSettings;->setUserAgentString(Ljava/lang/String;)V', u'Landroid/widget/Im"
p57
sg5
S'CHANGED (JI 41.25%)'
p58
sg7
F41.25
sa(dp59
g3
S'\nDELETED set([u\'if (OF.page) OF.refresh();\', u\'Creditcard\', u\'DELAY\', u\'umts\', u\'&u-appVer=\', u\'Message Send was Sucessful\', u\' at index \', u\'processPremiumSMS (shortcode, body)\', u\'webui/images/intro.games.hdpi.png\', u\'clientRef\', u\', needed \', u\'Unknown App Id\', u\' Picture \', u\' in read-only mode\', u\'GW\', u\'GU\', u\'NO_MATCH\', u\'GQ\', u"\' (for ", u\'Set Offer with URL of \', u\'EXPAND event\', u"\' not supported", u\'GY\', u\'GG\', u\'GF\', u\'GE\', u\'GD\', u\'write number\', u\'GB\', u\'GA\', u\'GN\', u\'GM\', u\'GL\', u\'Camera not found.\', u\'forceOffline = TRUE\', u\'GH\', u\'USER_CANCELED\', u\'Default-Landscape.png\', u\'mdpi\', u\'Presence\', u\'intro/\', u\' starting at \', u\'Time to get the GPS location...\', u\'$\', u\' GB\', u\'webui/images/frame.small.hdpi.png\', u\'ic_menu_camera\', u\'onFailedToReceiveAd\', u\'REQUEST_ID\', u\'netOpName\', u\'Qlen must >= 3\', u\'9774d56d682e549c\', u\'geo_availability\', u\'key must not be null\', u\'class %s does not implement Comparable\', u\'webui/images/space.grid.hdpi.png\', u"Can\'t upgrade read-only database f\n---\nADDED set([u\'EVERYONE\', u\'IOException trying to sync \', u\'basic_info\', u\'SUPPRESS_SSO\', u\'SignInButton\', u\'updateVideoLayout\', u\' mTag=\', u\'GamesClient\', u\'  %s: %d\\n\', u\' AAx\', u\'EGL_COVERAGE_BUFFERS_NV\', u\' did not call through to super.onDestroyView()\', u\'  %s:\\t%s\\n\', u\' index requested: \', u\'com.google.android.gms.appstate.internal.IAppStateCallbacks\', u\'\\n\\nActual\\nm32bit: \', u\'com.android.vending.licensing.ILicenseResultListener\', u"Missing \'to\'", u\'Not running Unity from an Activity; ignored...\', u\'Transfer-Encoding\', u\'com.google.android.gms.extras.uri\', u\'Header not found (invalid data or key):\', u\' token:\', u\'com.facebook.platform.extra.EXPIRES_SECONDS_SINCE_EPOCH\', u\'RESOLUTION_REQUIRED: Result resolution is required, but was not performed.\', u\'onCreate: creating GamesPlusClient\', u\'_eventName\', u\'invalid quality: \', u\'proxy onActivityResult intercepted. resultCode: \', u\'currentActivity\', u\'MIICUjCCAbsCBEk0mH4wDQYJKoZIhvcNAQEEBQAwcDELMAkGA1UEBhMCVVMxCzAJBgNVBAgTAkNBMRYwFAYDVQQHEw'
p60
sg5
S'CHANGED (JI 4.65%)'
p61
sg7
F4.6500000000000004
sa(dp62
g3
S"\nDELETED set(['Lcom/zong/android/engine/provider/E164;->MO Lcom/zong/android/engine/provider/E164; [access_flags=public static enum final]\\n', 'Lcom/ansca/corona/events/NetworkRequestEvent;->myIsError Z [access_flags=private]\\n', 'Lorg/codehaus/jackson/util/TextBuffer;->_segmentSize I [access_flags=private]\\n', 'Lcom/ansca/corona/events/MediaEvent$Event;->LoadSound Lcom/ansca/corona/events/MediaEvent$Event; [access_flags=public static enum final]\\n', 'Lcom/openfeint/api/resource/Achievement$1;->val$cb Lcom/openfeint/api/resource/Achievement$ListCB; [access_flags=synthetic final]\\n', 'Lcom/ansca/corona/ViewManager$19;->val$id I [access_flags=synthetic final]\\n', 'Lcom/adknowledge/superrewards/model/SRType;->FREE Lcom/adknowledge/superrewards/model/SRType; [access_flags=public static enum final]\\n', 'Lcom/openfeint/internal/request/Client$3;->this$0 Lcom/openfeint/internal/request/Client; [access_flags=synthetic final]\\n', 'Lcom/ansca/corona/Controller$8;->this$0 Lcom/ansca/corona/Controller; [ac\n---\nADDED set(['Lcom/prime31/EtceteraPlugin$4;->val$negativeButton Ljava/lang/String; [access_flags=private synthetic final]\\n', 'Lcom/unity3d/player/ae;->b Lcom/unity3d/player/UnityPlayer; [access_flags=private final]\\n', 'Lcom/unity3d/player/UnityPlayer;->p Landroid/os/PowerManager$WakeLock; [access_flags=private]\\n', 'Lcom/google/android/gms/plus/model/moments/ItemScope$Builder;->iM Ljava/lang/String; [access_flags=private]\\n', 'Lcom/google/android/gms/maps/model/VisibleRegion;->latLngBounds Lcom/google/android/gms/maps/model/LatLngBounds; [access_flags=public final]\\n', 'Lcom/unity3d/plugin/downloader/c/o;->f Lcom/unity3d/plugin/downloader/c/c; [access_flags=private final]\\n', 'Lorg/scribe/model/Token;->secret Ljava/lang/String; [access_flags=private final]\\n', 'Lcom/bfsgooglegames/UnityHelper;->mInstance Lcom/bfsgooglegames/UnityHelper; [access_flags=private static]\\n', 'Lcom/facebook/widget/UserSettingsFragment;->userProfilePicID Ljava/lang/String; [access_flags=private]\\n', 'Lcom/google/a"
p63
sg5
S'CHANGED (JI 0.23%)'
p64
sg7
F0.23000000000000001
sa.