(lp1
(dp2
S'detailed'
p3
S'DIFFERENT: 2014050101!=101'
p4
sS'not_detailed'
p5
S'CHANGED'
p6
sS'score'
p7
I0
sa(dp8
g3
S'DIFFERENT: 2014.05.01!=1.0.1'
p9
sg5
S'CHANGED'
p10
sg7
I0
sa(dp11
g3
S'DIFFERENT: 5!=7'
p12
sg5
S'CHANGED'
p13
sg7
I0
sa(dp14
g3
S'EQUAL'
p15
sg5
S'EQUAL'
p16
sg7
I100
sa(dp17
g3
S'DIFFERENT: 17!=16'
p18
sg5
S'CHANGED'
p19
sg7
I0
sa(dp20
g3
S'DIFFERENT: 17!=16'
p21
sg5
S'CHANGED'
p22
sg7
I0
sa(dp23
g3
S"\nDELETED set(['com.pixamark.landrule.permission.C2D_MESSAGE', 'com.google.android.c2dm.permission.RECEIVE'])\n---\nADDED set(['android.permission.READ_EXTERNAL_STORAGE', 'android.permission.RECEIVE_BOOT_COMPLETED', 'android.permission.ACCESS_WIFI_STATE', 'android.permission.ACCESS_COARSE_LOCATION', 'android.permission.READ_PHONE_STATE', 'android.permission.BACKUP', 'com.android.vending.CHECK_LICENSE'])"
p24
sg5
S'CHANGED (JI 43.75%)'
p25
sg7
F43.75
sa(dp26
g3
S'DIFFERENT: com.pixamark.landrule!=com.glu.flc2'
p27
sg5
S'CHANGED'
p28
sg7
I0
sa(dp29
g3
S'DIFFERENT: \xe7\xad\x96\xe7\x95\xa5\xe6\x88\x98\xe4\xba\x89!=Frontline 2'
p30
sg5
S'CHANGED'
p31
sg7
I0
sa(dp32
g3
S"\nDELETED set(['com.pixamark.landrule..ActivityMultiplayerGameRoomChat', 'com.pixamark.landrule.ActivityMultiplayerLogin', 'com.pixamark.landrule..ActivityMultiplayerGameRooms2', 'com.pixamark.landrule..ActivityGameBoardReplay', 'com.pixamark.landrule..ActivityShell', 'com.pixamark.landrule..ActivityAbout', 'com.pixamark.landrule..ActivityGameBoardMultiPlayer', 'com.pixamark.landrule..ActivityMultiplayerGameRoomSearch', 'com.pixamark.landrule..ActivityMultiplayerGameRoom', 'com.pixamark.landrule..billing.ActivityStoreHelp', 'com.google.ads.AdActivity', 'com.pixamark.landrule..ActivityWebView', 'com.pixamark.landrule..ActivityRouter', 'com.pixamark.landrule.ActivityShareGameLink', 'com.pixamark.landrule..store.ActivityStoreNew', 'com.pixamark.landrule.ActivityMultiplayerNotificationsHelp', 'com.pixamark.landrule..ActivityBrowsable', 'com.pixamark.landrule..ActivityMultiplayerLanding', 'com.pixamark.landrule..ActivityMultiplayerRelationships', 'com.pixamark.landrule..ActivityLog', 'com.pixamark.la\n---\nADDED set(['com.tapjoy.TJCOffersWebView', 'com.glu.plugins.aads.gifting.GiftingActivity', 'com.tapjoy.TapjoyFullScreenAdWebView', 'com.sponsorpay.sdk.android.publisher.OfferWallActivity', 'com.facebook.LoginActivity', 'com.tapjoy.mraid.view.ActionHandler', 'com.tapjoy.TJAdUnitView', 'com.jirbo.adcolony.AdColonyFullscreen', 'com.glu.plugins.aads.video.VideoAdsActivity', 'com.playhaven.src.publishersdk.content.PHContentView', 'com.tapjoy.TapjoyDailyRewardAdWebView', 'com.flurry.android.FlurryFullscreenTakeoverActivity', 'com.tapjoy.TapjoyVideoView', 'com.jirbo.adcolony.AdColonyBrowser', 'com.tapjoy.mraid.view.Browser', 'com.glu.plugins.AUnityInstaller.UnityLauncherActivity', 'com.glu.plugins.AJTInternet$WebActivity', 'com.unity3d.player.VideoPlayer', 'com.google.android.vending.expansion.downloader_impl.DownloaderActivity', 'com.jirbo.adcolony.AdColonyOverlay'])"
p33
sg5
S'CHANGED (JI 0.0%)'
p34
sg7
F0
sa(dp35
g3
S"\nDELETED set([u'assets/maps/earth_v0.xhtml', u'res/drawable-xhdpi/ic_launcher.png', u'res/layout/view_user_chat_header.xml', u'res/drawable-hdpi/multiplayer_star_icon_my_games.png', u'res/drawable-mdpi/no_image.xml', u'res/drawable-mdpi/titlebar_bg.xml', u'res/raw/landrule_ssl_trust.bks', u'res/drawable-mdpi/ic_action_smalltiles.png', u'assets/countries.json', u'res/drawable-mdpi/icon.png', u'res/layout/activity_loading_game.xml', u'res/drawable-mdpi/multiplayer_star_icon_my_host_ready.png', u'res/layout/list_item_new_game_color_dropdown.xml', u'res/layout/activity_share_game_link.xml', u'res/drawable-mdpi/game_controls_strip_btn_disabled.xml', u'res/drawable-mdpi/game_controls_strip_btn_selector.xml', u'res/drawable-mdpi/tile_button_off.xml', u'res/layout/edit_text_for_dlg.xml', u'assets/preloaded_flags/Poland.png', u'assets/preloaded_flags/United_Kingdom.png', u'res/drawable-mdpi/ic_action_close.png', u'res/menu/menu_activity_multiplayer_lounge.xml', u'res/layout/widget_single_player_new_game\n---\nADDED set([u'res/drawable/com_facebook_icon.png', u'res/drawable/1_navigation_refresh.png', u'res/drawable-mdpi/tw_widget_progressbar_holo_light.png', u'assets/ad_resources/drawable/amazon_ads_leftarrow.png', u'assets/ad_resources/drawable/amazon_ads_bkgrnd.png', u'res/drawable-xhdpi/tw_widget_progressbar_effect_holo_light.png', u'res/drawable/video_ads_button_blue.xml', u'res/drawable/com_facebook_list_section_header_background.9.png', u'res/drawable-ldpi/app_icon.png', u'lib/armeabi-v7a/libmono.so', u'res/drawable/6_social_person.png', u'res/drawable/com_facebook_button_check.xml', u'res/layout/com_facebook_picker_list_section_header.xml', u'res/drawable/com_facebook_picker_list_pressed.9.png', u'res/drawable/com_facebook_picker_list_selector.xml', u'res/layout/com_glu_plugins_facebookgluactivity.xml', u'res/drawable/6_social_send_now.png', u'res/drawable/video_ads_kinvite.png', u'res/drawable/com_facebook_profile_default_icon.png', u'res/drawable/5_content_discard.png', u'res/layout/com_f"
p36
sg5
S'CHANGED (JI 1.84%)'
p37
sg7
F1.8400000000000001
sa(dp38
g3
S"\nDELETED set(['com.pixamark.landrule..services.ServiceInstallPreloadedFlags', 'com.pixamark.landrule..services.ServiceDeleteGameReplays', 'com.pixamark.landrule..services.ServiceUpdateLocalStats', 'com.pixamark.landrule..services.ServiceGenerateWallpaper', 'com.pixamark.landrule..billing.BillingService', 'com.pixamark.landrule..services.ServiceGetNumberGamesUserParticipatingIn', 'com.pixamark.landrule..services.ServiceUpdateMultiplayerHistory', 'com.pixamark.landrule..services.ServiceLinkJettyGCM', 'com.pixamark.landrule..GCMIntentService'])\n---\nADDED set(['com.glu.plugins.assetbundles.UnpackerService', 'com.google.android.vending.expansion.downloader_impl.GDownloaderService'])"
p39
sg5
S'CHANGED (JI 0.0%)'
p40
sg7
F0
sa(dp41
g3
S"\nDELETED set(['com.google.android.gcm.GCMBroadcastReceiver', 'com.pixamark.landrule..billing.BillingReceiver'])\n---\nADDED set(['com.google.android.vending.expansion.downloader_impl.AlarmReceiver', 'com.glu.plugins.AUnityInstaller.GluInstallReferrerBroadcastReceiver', 'com.glu.plugins.NotificationReceiver'])"
p42
sg5
S'CHANGED (JI 0.0%)'
p43
sg7
F0
sa(dp44
g3
S"\nDELETED set([u'Lcom/pixamark/landrule/ActivityMultiplayerLogin$TaskLoginFacebook;', u'Lcom/pixamark/landrule/ActivityStatsLocal$2;', u'Lcom/pixamark/landrule/billing/CatalogFancyAdapter$OnBtnBuyClickListener;', u'Lcom/markww/libsvgandroid/model/util/SvgLog;', u'Lcom/markww/libsvgandroid/model/util/Density;', u'Lcom/pixamark/landrulemodel/types/Leaderboard;', u'Lcom/pixamark/landrule/util/Util;', u'Lcom/pixamark/landrule/billing/BillingCatalogConsts;', u'Lcom/pixamark/landrule/ActivityMultiplayerGameRoom$1;', u'Lcom/pixamark/landrule/ui/animate/Effects$OpacityScaler;', u'Lcom/pixamark/landrule/ActivityStatsGame$StateHolder;', u'Lcom/pixamark/landrule/platform/Platform07;', u'Lcom/pixamark/landrulemodel/game/MasterCore;', u'Lcom/google/ads/p;', u'Lcom/pixamark/landrule/ActivityWallpaperMaker$2;', u'Lorg/apache/http/ProtocolVersion;', u'Lcom/pixamark/landrule/files/FileGameReplays$FixedStringLengthUtils;', u'Lcom/pixamark/landrule/ActivityGameBoard;', u'Lcom/pixamark/landrule/ActivityMain$6;', u'\n---\nADDED set([u'Ljava/io/FileNotFoundException;', u'Lcom/flurry/android/aq;', u'Lcom/amazon/inapp/purchasing/ItemDataResponse$ItemDataRequestStatus;', u'Lorg/apache/commons/io/IOUtils;', u'Lcom/flurry/org/codehaus/jackson/map/ser/StdSerializers$UtilDateSerializer;', u'Lcom/google/android/gms/internal/ak;', u'Lcom/flurry/org/apache/avro/file/DataFileReader12;', u'Lcom/flurry/android/fe;', u'Lcom/google/gson/internal/bind/TypeAdapters$5;', u'Lcom/sponsorpay/sdk/android/advertiser/InstallCallbackSender;', u'Lcom/flurry/org/codehaus/jackson/map/HandlerInstantiator;', u'Lcom/google/gson/stream/MalformedJsonException;', u'Lcom/flurry/android/c;', u'Lcom/google/android/gms/maps/model/LatLngBounds;', u'Lcom/playhaven/src/publishersdk/purchases/TrackingDelegateAdapter;', u'Lcom/flurry/org/codehaus/jackson/map/ser/StdSerializers$NumberSerializer;', u'Lcom/tapjoy/TapjoyVideoObject;', u'Lcom/tapjoy/mraid/view/MraidView$1;', u'Lcom/google/gson/internal/UnsafeAllocator$4;', u'Lcom/chartboost/sdk/impl/n$a;', "
p45
sg5
S'CHANGED (JI 9.56%)'
p46
sg7
F9.5600000000000005
sa(dp47
g3
S"\nDELETED set([u'Lcom/google/ads/AdView;->stopLoading()V', u'Lcom/pixamark/landrule/fragments/FragmentUserSearch;->ensureUiEditText()V', u'Lcom/pixamark/landrule/ActivityMultiplayerGameRoomChat;->ensureUi()V', u'Lcom/google/ads/d;-><init>(Landroid/app/Activity; Lcom/google/ads/Ad; Lcom/google/ads/AdSize; Ljava/lang/String; Z)V', u'Lcom/pixamark/landrulemodel/ai/AiSimple;-><init>(Ljava/lang/String;)V', u'Lcom/pixamark/landrule/billing/CatalogStateAdapter;-><init>(Landroid/content/Context; Ljava/util/List;)V', u'Lcom/pixamark/landrule/files/FileStatsLocal;->incrementNumGamesPlayed(Ljava/lang/String; I I)V', u'Lcom/pixamark/landrule/billing/BillingService$BillingRequest;->onRemoteException(Landroid/os/RemoteException;)V', u'Lcom/pixamark/landrule/jobs/impl/RequestGameRooms$ResponseGameRooms;->getNotifications()Ljava/util/List;', u'Lcom/google/android/apps/analytics/GoogleAnalyticsTracker;->dispatchFinished()V', u'Lcom/markww/libsvgandroid/model/util/SvgUtil;->scaleSvgToHeight(Lcom/markww/libsvgandr\n---\nADDED set([u'Lcom/flurry/org/codehaus/jackson/map/ser/ScalarSerializerBase;-><init>(Ljava/lang/Class; Z)V', u'Lorg/slf4j/helpers/BasicMDCAdapter;->setContextMap(Ljava/util/Map;)V', u'Lcom/facebook/model/GraphObject$Factory$GraphObjectListImpl;->put(I Ljava/lang/Object;)V', u'Landroid/support/v4/app/ActivityOptionsCompat$ActivityOptionsImplJB;->update(Landroid/support/v4/app/ActivityOptionsCompat;)V', u'Lcom/flurry/android/SdkAdLog$Builder;->getSessionId()Ljava/lang/Long;', u'Lv2/com/playhaven/requests/crashreport/PHCrashReport$Urgency;->valueOf(Ljava/lang/String;)Lv2/com/playhaven/requests/crashreport/PHCrashReport$Urgency;', u'Lcom/flurry/org/codehaus/jackson/map/ser/FilteredBeanPropertyWriter;-><init>()V', u'Lcom/glu/plugins/astats/mobileapptracking/MobileAppTrackerGlu;->access$002(Lcom/mobileapptracker/MobileAppTracker;)Lcom/mobileapptracker/MobileAppTracker;', u'Lcom/flurry/org/codehaus/jackson/map/ObjectMapper;->writerWithType(Lcom/flurry/org/codehaus/jackson/type/JavaType;)Lcom/flurry/"
p48
sg5
S'CHANGED (JI 5.68%)'
p49
sg7
F5.6799999999999997
sa(dp50
g3
S"\nDELETED set([u'Lcom/google/ads/AdView;->stopLoading()V', u'Landroid/support/v4/widget/ScrollerCompat$ScrollerCompatImplIcs;-><init>(Landroid/content/Context;)V', u'Lcom/facebook/android/Util;->logd(Ljava/lang/String; Ljava/lang/String;)V', u'Lcom/facebook/android/Facebook;->access$1(Lcom/facebook/android/Facebook;)Lcom/facebook/android/Facebook$DialogListener;', u'Landroid/support/v4/app/FragmentState;->instantiate(Landroid/support/v4/app/FragmentActivity;)Landroid/support/v4/app/Fragment;', u'Lcom/google/ads/AdRequest;->addTestDevice(Ljava/lang/String;)V', u'Landroid/support/v4/app/Fragment;->restoreViewState()V', u'Landroid/support/v4/app/LoaderManagerImpl;-><init>(Landroid/support/v4/app/FragmentActivity; Z)V', u'Landroid/support/v4/app/FragmentActivity;->getLoaderManager(I Z Z)Landroid/support/v4/app/LoaderManagerImpl;', u'Lcom/google/ads/AdSize;->getHeight()I', u'Lcom/google/ads/InterstitialAd;-><init>(Landroid/app/Activity; Ljava/lang/String;)V', u'Lcom/google/ads/AdView;->loadAd(Lcom/go\n---\nADDED set([u'Landroid/support/v4/view/MenuItemCompat$MenuVersionImpl;->setOnActionExpandListener(Landroid/view/MenuItem; Landroid/support/v4/view/MenuItemCompat$OnActionExpandListener;)Landroid/view/MenuItem;', u'Landroid/support/v4/widget/SearchViewCompat;->setQueryHint(Landroid/view/View; Ljava/lang/CharSequence;)V', u'Landroid/support/v4/view/accessibility/AccessibilityEventCompat;->asRecord(Landroid/view/accessibility/AccessibilityEvent;)Landroid/support/v4/view/accessibility/AccessibilityRecordCompat;', u'Landroid/support/v4/view/ViewCompat$JBViewCompatImpl;->getParentForAccessibility(Landroid/view/View;)Landroid/view/ViewParent;', u'Lcom/facebook/android/Facebook;->onSessionCallback(Lcom/facebook/Session; Lcom/facebook/SessionState; Ljava/lang/Exception; Lcom/facebook/android/Facebook$DialogListener;)V', u'Landroid/support/v4/widget/SearchViewCompat$SearchViewCompatImpl;->setQueryRefinementEnabled(Landroid/view/View; Z)V', u'Landroid/support/v4/view/ViewCompat;->isOpaque(Landroid/view/"
p51
sg5
S'CHANGED (JI 85.2%)'
p52
sg7
F85.200000000000003
sa(dp53
g3
S"\nDELETED set([u'Lcom/google/ads/AdView;->stopLoading()V', u'Lcom/pixamark/landrule/fragments/FragmentUserSearch;->ensureUiEditText()V', u'Lcom/pixamark/landrulemodel/ai/AiSimple;-><init>(Ljava/lang/String;)V', u'Lcom/pixamark/landrule/files/FileStatsLocal;->incrementNumGamesPlayed(Ljava/lang/String; I I)V', u'Lcom/pixamark/landrule/billing/BillingService$BillingRequest;->onRemoteException(Landroid/os/RemoteException;)V', u'Lcom/markww/libsvgandroid/model/util/SvgUtil;->scaleSvgToHeight(Lcom/markww/libsvgandroid/model/Svg; I)V', u'Lcom/pixamark/landrule/billing/ActivityStore;->access$5(Lcom/pixamark/landrule/billing/ActivityStore;)Lcom/pixamark/landrule/store/CatalogAdapterInterface;', u'Lcom/pixamark/landrule/ui/MapBoardController;->handleTouchDown(F F Lcom/pixamark/landrulemodel/types/turnstate/TurnState;)Z', u'Lcom/pixamark/landrule/ui/MapBoardRenderer;->setMapBoardBitmap(Landroid/graphics/Bitmap;)V', u'Lcom/pixamark/landrule/fragments/FragmentUserDetailInGame;->onActivityCreated(Landroid/os/\n---\nADDED set([u'Lcom/unity3d/player/v;->setImageBitmap(Landroid/graphics/Bitmap;)V', u'Lorg/json/JSONStringer;->object()Lorg/json/JSONStringer;', u'Lv2/com/playhaven/requests/crashreport/PHCrashReport$Urgency;->valueOf(Ljava/lang/String;)Lv2/com/playhaven/requests/crashreport/PHCrashReport$Urgency;', u'Lcom/flurry/org/codehaus/jackson/map/ser/FilteredBeanPropertyWriter;-><init>()V', u'Landroid/app/Fragment;->onLowMemory()V', u'Lcom/facebook/model/GraphObject$Factory$GraphObjectListImpl;->put(I Ljava/lang/Object;)V', u'Lcom/google/android/gms/internal/bh$6;->b(Lcom/google/android/gms/dynamic/LifecycleDelegate;)V', u'Lcom/flurry/android/AppCloudCollectionInfo;-><init>()V', u'Lcom/flurry/org/apache/avro/generic/GenericDatumWriter;-><init>(Lcom/flurry/org/apache/avro/Schema; Lcom/flurry/org/apache/avro/generic/GenericData;)V', u'Lcom/google/common/util/concurrent/RateLimiter;-><init>(Lcom/google/common/util/concurrent/RateLimiter$SleepingTicker;)V', u'Lcom/glu/plugins/aads/util/IndeterminateProgres"
p54
sg5
S'CHANGED (JI 8.29%)'
p55
sg7
F8.2899999999999991
sa(dp56
g3
S"\nDELETED set([u'Lcom/google/ads/AdView;->stopLoading()V', u'Landroid/widget/TableRow;->setVisibility(I)V', u'Landroid/content/res/TypedArray;->length()I', u'Landroid/widget/Button;->setTextColor(I)V', u'Lcom/google/ads/AdView;->a(Landroid/app/Activity; Lcom/google/ads/AdSize; Ljava/lang/String;)V', u'Ljava/util/SortedMap;->size()I', u'Landroid/widget/ArrayAdapter;-><init>(Landroid/content/Context; I)V', u'Landroid/widget/TextView;->setBackgroundResource(I)V', u'Landroid/content/pm/PackageManager;->queryBroadcastReceivers(Landroid/content/Intent; I)Ljava/util/List;', u'Landroid/graphics/Paint;->reset()V', u'Landroid/support/v4/app/FragmentActivity;->getLoaderManager(I Z Z)Landroid/support/v4/app/LoaderManagerImpl;', u'Landroid/webkit/WebSettings;->setUserAgentString(Ljava/lang/String;)V', u'Landroid/app/ActionBar;->setDisplayHomeAsUpEnabled(Z)V', u'Ljava/text/DecimalFormat;->setMinimumFractionDigits(I)V', u'Ljava/util/concurrent/TimeUnit;->toMillis(J)J', u'Lcom/facebook/android/Facebook$1;->onCa\n---\nADDED set([u'Landroid/support/v4/widget/ScrollerCompat$ScrollerCompatImplIcs;-><init>()V', u'Lorg/apache/http/HttpEntity;->getContentLength()J', u'Landroid/content/Intent;->putExtra(Ljava/lang/String; Ljava/io/Serializable;)Landroid/content/Intent;', u'Landroid/widget/FrameLayout;->onTouchEvent(Landroid/view/MotionEvent;)Z', u'Lorg/xmlpull/v1/XmlPullParserFactory;->setNamespaceAware(Z)V', u'Ljava/util/List;->indexOf(Ljava/lang/Object;)I', u'Landroid/support/v4/view/accessibility/AccessibilityEventCompat;->asRecord(Landroid/view/accessibility/AccessibilityEvent;)Landroid/support/v4/view/accessibility/AccessibilityRecordCompat;', u'Landroid/location/Location;->getSpeed()F', u'Lcom/facebook/android/Facebook;->onSessionCallback(Lcom/facebook/Session; Lcom/facebook/SessionState; Ljava/lang/Exception; Lcom/facebook/android/Facebook$DialogListener;)V', u'Ljava/math/BigInteger;->divide(Ljava/math/BigInteger;)Ljava/math/BigInteger;', u'Landroid/support/v4/app/Fragment;->performPause()V', u'Landroid/s"
p57
sg5
S'CHANGED (JI 63.78%)'
p58
sg7
F63.780000000000001
sa(dp59
g3
S'\nDELETED set([u\'Cannot show interstitial because it is not loaded and ready.\', u\'Timestamp:           \', u\'Earth + Antarctica\', u\'num-units-placed\', u"Can\'t start async operation (", u\'btnInstructions\', u\'singleplayer_shuffle_players\', u\'REQUEST_ID\', u\'Could not find group::neighbors group element.\', u\'GoogleAdMobDoritosLife\', u\'&utmul=%s-%s\', u\'You have more than 5 cards, you must turn them in.\', u\'Querying SKU details.\', u\'  Neither have enemy neighbors, just going to move all.\', u\'Host\', u\'numUnitsAttackingRemaining\', u\'1.1.\', u\'JSONObject[\', u\'API gave us a chance of [\', u\'started\', u\'last-check-time-app-marketplace-version-\', u"{\'event\': \'canplaythrough\', \'duration\': \'", u\'No turn state!\', u\' Num Units Placed: \', u" only has 1 unit, can\'t launch an attack from here at all.", u\'Dropped Users: \', u\'inapp_signed_data\', u\'<circle>\', u\'An error occurred while loading a URL in AdWebView:\', u\'com.pixamark.landrule.ServiceLinkJettyGCM.INTENT_EXTRA_IS_REGISTERING\', u\'No "enabled" parameter in a con\n---\nADDED set([u\'connect?\', u\'after writing descriptor outbuf size = \', u\'MadePurchase\', u\'String eventId passed to endTimedEvent was null.\', u\'basic_info\', u\'SUPPRESS_SSO\', u\'failWrite: Got exception:\', u\'com.tapjoy.TJAdUnitView\', u\'NOT_LICENSED\', u\' in field \', u\'%s/activities\', u\'Not running Unity from an Activity; ignored...\', u\'banner ad holder layout params = \', u\'ACTION_PREVIOUS_HTML_ELEMENT\', u\'invalid quality: \', u\' permissions were not found in manifest. The exclusion of these permissions could cause problems.\', u\'MIICUjCCAbsCBEk0mH4wDQYJKoZIhvcNAQEEBQAwcDELMAkGA1UEBhMCVVMxCzAJBgNVBAgTAkNBMRYwFAYDVQQHEw1Nb3VudGFpbiBWaWV3MRQwEgYDVQQKEwtHb29nbGUsIEluYzEUMBIGA1UECxMLR29vZ2xlLCBJbmMxEDAOBgNVBAMTB1Vua25vd24wHhcNMDgxMjAyMDIwNzU4WhcNMzYwNDE5MDIwNzU4WjBwMQswCQYDVQQGEwJVUzELMAkGA1UECBMCQ0ExFjAUBgNVBAcTDU1vdW50YWluIFZpZXcxFDASBgNVBAoTC0dvb2dsZSwgSW5jMRQwEgYDVQQLEwtHb29nbGUsIEluYzEQMA4GA1UEAxMHVW5rbm93bjCBnzANBgkqhkiG9w0BAQEFAAOBjQAwgYkCgYEAn0gDGZD5sUcmOE4EU9GPjAu/jcd7JQSksSB8TGxEurwArcZhD6a2qy2o'
p60
sg5
S'CHANGED (JI 5.98%)'
p61
sg7
F5.9800000000000004
sa(dp62
g3
S"\nDELETED set(['Lcom/pixamark/landrule/ActivityMultiplayerSignup;->mTextTermsOfService Landroid/widget/TextView; [access_flags=private]\\n', 'Lcom/pixamark/landrule/fragments/FragmentGameReplays;->mFiles Ljava/util/List; [access_flags=private]\\n', 'Lcom/pixamark/landrulemodel/types/Leaderboard;->titleTimeRange Ljava/lang/String; [access_flags=private]\\n', 'Lcom/pixamark/landrule/ActivityMultiplayerLanding$2;->this$0 Lcom/pixamark/landrule/ActivityMultiplayerLanding; [access_flags=synthetic final]\\n', 'Lcom/pixamark/landrule/ui/widgets/StatsGameGlobalsAdapter;->mGameStat Lcom/pixamark/landrulemodel/types/GameStats; [access_flags=private]\\n', 'Lcom/pixamark/landrule/ActivityMultiplayerGameRoomChat;->mStateHolder Lcom/pixamark/landrule/ActivityMultiplayerGameRoomChat$StateHolder; [access_flags=private]\\n', 'Lcom/pixamark/landrulemodel/types/ChatMessage;->mIsSticky Z [access_flags=private]\\n', 'Lcom/pixamark/landrule/ActivityMultiplayerLounge;->mState Lcom/pixamark/landrule/ActivityMultiplayerLounge$\n---\nADDED set(['Lcom/google/android/vending/expansion/downloader/impl/DownloadNotification;->mContext Landroid/content/Context; [access_flags=private final]\\n', 'Lcom/chartboost/sdk/impl/k;->c Ljava/lang/String; [access_flags=public]\\n', 'Lcom/sponsorpay/sdk/android/utils/UrlBuilder;->mShouldAddScreenMetrics Z [access_flags=private]\\n', 'Lorg/apache/commons/io/comparator/ExtensionFileComparator;->caseSensitivity Lorg/apache/commons/io/IOCase; [access_flags=private final]\\n', 'Lcom/google/android/gms/games/leaderboard/SubmitScoreResult;->ey Ljava/util/HashMap; [access_flags=private]\\n', 'Lcom/jirbo/adcolony/ADCVideoHUD;->selected_button I [access_flags=0x0]\\n', 'Lcom/chartboost/sdk/impl/n$1;->e Ljava/lang/Boolean; [access_flags=private synthetic final]\\n', 'Lcom/google/common/util/concurrent/JdkFutureAdapters$ListenableFutureAdapter$1;->this$0 Lcom/google/common/util/concurrent/JdkFutureAdapters$ListenableFutureAdapter; [access_flags=synthetic final]\\n', 'Lcom/unity3d/player/UnityPlayer;->p Landr"
p63
sg5
S'CHANGED (JI 4.2%)'
p64
sg7
F4.2000000000000002
sa.