(lp1
(dp2
S'detailed'
p3
S'DIFFERENT: 886!=2'
p4
sS'not_detailed'
p5
S'CHANGED'
p6
sS'score'
p7
I0
sa(dp8
g3
S'DIFFERENT: 1.7.7.4!=1.0.1'
p9
sg5
S'CHANGED'
p10
sg7
I0
sa(dp11
g3
S'DIFFERENT: 3!=7'
p12
sg5
S'CHANGED'
p13
sg7
I0
sa(dp14
g3
S'EQUAL'
p15
sg5
S'EQUAL'
p16
sg7
I100
sa(dp17
g3
S'DIFFERENT: 10!=14'
p18
sg5
S'CHANGED'
p19
sg7
I0
sa(dp20
g3
S'DIFFERENT: 10!=14'
p21
sg5
S'CHANGED'
p22
sg7
I0
sa(dp23
g3
S"\nDELETED set(['android.permission.ACCESS_FINE_LOCATION', 'android.permission.ACCESS_COARSE_LOCATION', 'android.permission.NFC'])\n---\nADDED set(['android.permission.WRITE_EXTERNAL_STORAGE', 'com.android.vending.BILLING', 'android.permission.ACCESS_WIFI_STATE'])"
p24
sg5
S'CHANGED (JI 25.0%)'
p25
sg7
F25
sa(dp26
g3
S'DIFFERENT: org.montrealtransit.android!=com.leagem.zombieescape'
p27
sg5
S'CHANGED'
p28
sg7
I0
sa(dp29
g3
S'DIFFERENT: MonTransit!=Zombie Escape'
p30
sg5
S'CHANGED'
p31
sg7
I0
sa(dp32
g3
S"\nDELETED set(['org.montrealtransit.android..activity.SubwayTab', 'org.montrealtransit.android..activity.BusStopCodeTab', 'org.montrealtransit.android..activity.UserPreferences', 'org.montrealtransit.android..activity.FavListLiveFolder', 'org.montrealtransit.android..activity.MainScreen', 'org.montrealtransit.android..activity.FavListTab', 'org.montrealtransit.android..activity.BusStopInfo', 'org.montrealtransit.android..activity.SubwayStationInfo', 'org.montrealtransit.android..activity.BusTab', 'org.montrealtransit.android..activity.v4.BusLineInfo', 'org.montrealtransit.android..activity.BusLineInfo', 'org.montrealtransit.android..activity.BikeStationInfo', 'org.montrealtransit.android..activity.SearchResult', 'org.montrealtransit.android..activity.v4.BusTab', 'org.montrealtransit.android..activity.BikeTab', 'org.montrealtransit.android..activity.SubwayLineInfo', 'org.montrealtransit.android..activity.v4.SubwayLineInfo', 'org.montrealtransit.android..activity.SplashScreen'])\n---\nADDED set(['com.leagem.zombieescape.MainActivity', 'com.doodlemobile.gamecenter.moregames.MoreGamesActivity'])"
p33
sg5
S'CHANGED (JI 4.76%)'
p34
sg7
F4.7599999999999998
sa(dp35
g3
S"\nDELETED set([u'res/drawable/ic_menu_twitter.png', u'res/drawable/ic_btn_twitter.png', u'res/layout/bike_station_tab.xml', u'res/raw/stm_db_horaire_metro', u'res/layout/fav_list_tab_bus_stop_item.xml', u'res/layout/bus_line_info_stops_list.xml', u'res/drawable/bus_stop_white.png', u'res/drawable-hdpi/ic_tab_bike_selected.png', u'res/drawable-xhdpi/subway_dark.png', u'res/layout/search_result_bus_stop_item.xml', u'res/layout-v4/bike_station_info_closest_stations_list_item.xml', u'res/drawable-hdpi/vpi__tab_selected_holo.9.png', u'res/drawable-hdpi/ic_menu_refresh.png', u'res/layout/subway_tab_closest_stations_title.xml', u'res/layout-sw600dp/ad_layout.xml', u'res/raw/stm_db_arrets_autobus_loc', u'res/drawable/dark_header.9.png', u'res/layout/bus_tab.xml', u'res/drawable/ic_launcher_icon.png', u'res/layout/splash_screen.xml', u'res/drawable-xhdpi/ic_tab_bus_selected.png', u'res/layout-v4/bus_tab.xml', u'res/drawable-xxhdpi/ic_launcher_icon.png', u'res/menu/subway_station_info_menu.xml', u'res/dra\n---\nADDED set(['res/layout/dm_moregames_layout.xml', 'assets/bin/Data/sharedassets1.assets', 'assets/bin/Data/unity default resources', 'lib/armeabi/libunity.so', 'assets/bin/Data/sharedassets3.assets', 'assets/bin/Data/Managed/Assembly-UnityScript-firstpass.dll', 'assets/bin/Data/sharedassets0.assets', 'res/drawable/dm_arrows.png', 'res/drawable/dm_featureview_layout_admob_bg.9.png', 'lib/armeabi/libmono.so', 'META-INF/FRUITSMO.RSA', 'assets/bin/Data/Managed/UnityEngine.dll', 'res/layout/my_featureview_layout.xml', 'res/drawable/dm_featureview_layout_admob_arraw.png', 'assets/bin/Data/mainData', 'res/layout/gamecenter_main.xml', 'res/layout/example_dialog.xml', 'assets/bin/Data/sharedassets2.assets', 'assets/bin/Data/sharedassets5.assets', 'res/drawable/loading.jpg', 'assets/bin/Data/settings.xml', 'res/layout/dm_admob_layout.xml', 'assets/bin/Data/sharedassets4.assets', 'assets/bin/Data/splash.png', 'assets/libs/armeabi-vfp/libmono.so', 'assets/bin/Data/Managed/Assembly-CSharp.dll', 'assets/li"
p36
sg5
S'CHANGED (JI 1.29%)'
p37
sg7
F1.29
sa(dp38
g3
S'EQUAL (JI 100%)'
p39
sg5
S'EQUAL (JI 100%)'
p40
sg7
I100
sa(dp41
g3
S"\nDELETED set(['com.google.android.apps.analytics.AnalyticsReceiver'])\n---\nADDED set([])"
p42
sg5
S'CHANGED (JI 0.0%)'
p43
sg7
F0
sa(dp44
g3
S"\nDELETED set([u'Landroid/support/v4/widget/SlidingPaneLayout$LayoutParams;', u'Landroid/support/v4/widget/SearchViewCompatHoneycomb$1;', u'Lorg/montrealtransit/android/provider/DataStore$Cache;', u'Lorg/montrealtransit/android/activity/BusLineInfo$4;', u'Lcom/viewpagerindicator/UnderlinePageIndicator$1;', u'Landroid/support/v4/net/TrafficStatsCompat$BaseTrafficStatsCompatImpl;', u'Landroid/support/v4/widget/SlidingPaneLayout$1;', u'Lorg/montrealtransit/android/activity/v4/BusLineInfo$BusLineDirectionAdapter;', u'Lorg/montrealtransit/android/activity/BikeStationInfo$4;', u'Lcom/google/ads/m$a;', u'Landroid/support/v4/view/MotionEventCompat$MotionEventVersionImpl;', u'Lorg/apache/http/ProtocolVersion;', u'Lorg/montrealtransit/android/activity/SubwayLineInfo$2;', u'Lcom/google/android/apps/analytics/GoogleAnalyticsTracker;', u'Lorg/montrealtransit/android/dialog/SubwayLineSelectDirection;', u'Lorg/montrealtransit/android/activity/v4/BusTabClosestStopsFragment$5;', u'Landroid/support/v4/view/ViewGr\n---\nADDED set([u'Ljava/io/FileNotFoundException;', u'[Lcom/google/ads/ai$b;', u'Lcom/unity3d/player/t$1;', u'Lcom/doodlemobile/gamecenter/billing/util/IabHelper$3$2;', u'Lcom/flurry/android/c;', u'Lcom/unity3d/player/p$1;', u'Lcom/doodlemobile/gamecenter/billing/util/IabHelper$OnIabSetupFinishedListener;', u'Lcom/flurry/android/d;', u'Lcom/google/ads/ai$a;', u'Landroid/view/SurfaceHolder;', u'Landroid/view/SurfaceView;', u'Lcom/unity3d/player/p$6;', u'Lcom/doodlemobile/des/DDes;', u'Lcom/unity3d/player/UnityPlayer$17;', u'Lcom/doodlemobile/gamecenter/fullscreen/Resources;', u'Lcom/doodlemobile/gamecenter/featuregames/DFeatureGamesFactory;', u'Lcom/doodlemobile/gamecenter/R$layout;', u'Lcom/unity3d/player/k;', u'Lcom/unity3d/player/a/l;', u'Lcom/doodlemobile/gamecenter/billing/util/Inventory;', u'Lcom/doodlemobile/gamecenter/billing/util/IabResult;', u'Lcom/flurry/android/j;', u'Landroid/media/AudioTrack;', u'Lcom/doodlemobile/gamecenter/featuregames/FeatureView;', u'Lcom/doodlemobile/gamecenter/"
p45
sg5
S'CHANGED (JI 19.69%)'
p46
sg7
F19.690000000000001
sa(dp47
g3
S"\nDELETED set([u'Lcom/viewpagerindicator/UnderlinePageIndicator$1;-><init>(Lcom/viewpagerindicator/UnderlinePageIndicator;)V', u'Landroid/support/v4/app/ListFragment;->setListShown(Z)V', u'Lorg/montrealtransit/android/services/ClosestBikeStationsFinderTask;->sortBikeStations(Ljava/util/List;)V', u'Landroid/support/v4/app/ActivityOptionsCompat$ActivityOptionsImplJB;->update(Landroid/support/v4/app/ActivityOptionsCompat;)V', u'Lorg/montrealtransit/android/activity/SubwayLineInfo$5;->onPostExecute(Ljava/util/List;)V', u'Landroid/support/v4/app/ShareCompat$IntentReader;->getEmailCc()[Ljava/lang/String;', u'Landroid/support/v4/app/FragmentManagerImpl;->dispatchLowMemory()V', u'Landroid/support/v4/app/DialogFragment;->dismiss()V', u'Landroid/support/v4/app/FragmentActivity$NonConfigurationInstances;-><init>()V', u'Landroid/support/v4/widget/ViewDragHelper;->processTouchEvent(Landroid/view/MotionEvent;)V', u'Landroid/support/v4/app/NavUtils$NavUtilsImplJB;->getParentActivityName(Landroid/content/Contex\n---\nADDED set([u'Lcom/doodlemobile/gamecenter/billing/util/Security;->verify(Ljava/security/PublicKey; Ljava/lang/String; Ljava/lang/String;)Z', u'Lcom/doodlemobile/gamecenter/billing/util/IabHelper;->enableDebugLogging(Z Ljava/lang/String;)V', u'Lcom/google/ads/internal/d;->p()Z', u'Lcom/doodlemobile/gamecenter/billing/util/Inventory;->addPurchase(Lcom/doodlemobile/gamecenter/billing/util/Purchase;)V', u'Lcom/google/ads/AdActivity;->b(Ljava/util/HashMap; Lcom/google/ads/internal/d;)V', u'Lcom/android/vending/billing/IInAppBillingService;->getPurchases(I Ljava/lang/String; Ljava/lang/String; Ljava/lang/String;)Landroid/os/Bundle;', u'Lcom/unity3d/player/g;->a(Landroid/view/MotionEvent;)I', u'Lcom/flurry/android/w;-><init>()V', u'Lcom/unity3d/player/UnityPlayer$20;-><init>(Lcom/unity3d/player/UnityPlayer;)V', u'Lcom/doodlemobile/gamecenter/featuregames/DFeatureGameMutiCountryTask;->doInBackground([Ljava/lang/Object;)Ljava/lang/Object;', u'Lcom/unity3d/player/u$a;->createContext(Ljavax/microeditio"
p48
sg5
S'CHANGED (JI 9.3%)'
p49
sg7
F9.3000000000000007
sa(dp50
g3
S"\nDELETED set([u'Lcom/google/ads/internal/i;->onReceivedError(Landroid/webkit/WebView; I Ljava/lang/String; Ljava/lang/String;)V', u'Lcom/google/ads/af;->run()V', u'Lcom/google/ads/ac;-><init>()V', u'Lcom/google/ads/q;-><clinit>()V', u'Lcom/google/ads/internal/AdWebView;->onTouchEvent(Landroid/view/MotionEvent;)Z', u'Lcom/google/ads/AdActivity;->e()V', u'Lcom/google/ads/internal/f;->m(Ljava/net/HttpURLConnection;)V', u'Lcom/google/ads/internal/j$a;->a()Lorg/json/JSONObject;', u'Lcom/google/ads/AdActivity;->leftApplication()Z', u'Lcom/google/ads/internal/d;->j()Lcom/google/ads/d;', u'Lcom/google/ads/n;->a()Z', u'Lcom/google/ads/internal/d;->n()Lcom/google/ads/internal/g;', u'Lcom/google/ads/util/e;->a(Landroid/content/Intent; Ljava/lang/String;)V', u'Lcom/google/ads/ag$c;-><init>(Lcom/google/ads/ag; Lcom/google/ads/ag$1;)V', u'Lcom/google/ads/util/g;->a(Landroid/webkit/WebSettings; Lcom/google/ads/n;)V', u'Lcom/google/ads/l;-><init>(Lcom/google/ads/n;)V', u'Lcom/google/ads/n;->b()Z', u'Lcom/googl\n---\nADDED set([u'Lcom/google/ads/ac;->run()V', u'Lcom/google/ads/internal/j$a;->onGesturePerformed(Landroid/gesture/GestureOverlayView; Landroid/gesture/Gesture;)V', u'Lcom/google/ads/util/AdUtil;->c(Ljava/lang/String;)Ljava/lang/String;', u'Lcom/google/ads/n;->a(Lcom/google/ads/internal/d; Ljava/util/HashMap; Landroid/webkit/WebView;)V', u'Lcom/google/ads/util/g$a;-><init>(Lcom/google/ads/m;)V', u'Lcom/google/ads/u;->a(Ljava/lang/String; Landroid/webkit/WebView;)Ljava/lang/Runnable;', u'Lcom/google/ads/internal/d;->p()Z', u'Lcom/google/ads/internal/c$2;-><clinit>()V', u'Lcom/google/ads/AdActivity;->b(Ljava/util/HashMap; Lcom/google/ads/internal/d;)V', u'Lcom/google/ads/util/c;->b([B I)Ljava/lang/String;', u'Lcom/google/ads/ag;->a(Landroid/app/Activity;)V', u'Lcom/google/ads/internal/d;->d()V', u'Lcom/google/ads/ag$c;-><init>(Landroid/webkit/WebView; Z)V', u'Lcom/google/ads/internal/c;->b(Lcom/google/ads/internal/c;)Ljava/lang/String;', u'Lcom/google/ads/internal/AdWebView;->e()Z', u'Lcom/google"
p51
sg5
S'CHANGED (JI 80.63%)'
p52
sg7
F80.629999999999995
sa(dp53
g3
S"\nDELETED set([u'Lcom/viewpagerindicator/UnderlinePageIndicator$1;-><init>(Lcom/viewpagerindicator/UnderlinePageIndicator;)V', u'Landroid/support/v4/app/ListFragment;->setListShown(Z)V', u'Lorg/montrealtransit/android/services/ClosestBikeStationsFinderTask;->sortBikeStations(Ljava/util/List;)V', u'Landroid/widget/TextView;->setTextAppearance(Landroid/content/Context; I)V', u'Landroid/support/v4/app/ActivityOptionsCompat$ActivityOptionsImplJB;->update(Landroid/support/v4/app/ActivityOptionsCompat;)V', u'Landroid/view/accessibility/AccessibilityRecord;->setToIndex(I)V', u'Landroid/support/v4/app/ShareCompat$IntentReader;->getEmailCc()[Ljava/lang/String;', u'Landroid/view/accessibility/AccessibilityManager;->addAccessibilityStateChangeListener(Landroid/view/accessibility/AccessibilityManager$AccessibilityStateChangeListener;)Z', u'Landroid/support/v4/widget/ViewDragHelper;->processTouchEvent(Landroid/view/MotionEvent;)V', u'Lorg/montrealtransit/android/activity/BusTab$BusStopArrayAdapter;->getCount\n---\nADDED set([u'Lorg/xmlpull/v1/XmlPullParserFactory;->newInstance()Lorg/xmlpull/v1/XmlPullParserFactory;', u'Lorg/apache/http/HttpEntity;->getContentLength()J', u'Lcom/doodlemobile/gamecenter/billing/util/Security;->verify(Ljava/security/PublicKey; Ljava/lang/String; Ljava/lang/String;)Z', u'Lorg/xmlpull/v1/XmlPullParserFactory;->setNamespaceAware(Z)V', u'Lcom/doodlemobile/gamecenter/billing/Store;->onCreate(Landroid/app/Activity;)V', u'Lcom/doodlemobile/gamecenter/billing/util/IabHelper;->enableDebugLogging(Z Ljava/lang/String;)V', u'Lcom/google/ads/internal/d;->p()Z', u'Lcom/doodlemobile/gamecenter/billing/util/Inventory;->addPurchase(Lcom/doodlemobile/gamecenter/billing/util/Purchase;)V', u'Lcom/google/ads/AdActivity;->b(Ljava/util/HashMap; Lcom/google/ads/internal/d;)V', u'Lcom/android/vending/billing/IInAppBillingService;->getPurchases(I Ljava/lang/String; Ljava/lang/String; Ljava/lang/String;)Landroid/os/Bundle;', u'Lcom/unity3d/player/g;->a(Landroid/view/MotionEvent;)I', u'Lcom/flurry/a"
p54
sg5
S'CHANGED (JI 13.12%)'
p55
sg7
F13.119999999999999
sa(dp56
g3
S"\nDELETED set([u'Ljava/util/List;->indexOf(Ljava/lang/Object;)I', u'Landroid/widget/TextView;->setTextAppearance(Landroid/content/Context; I)V', u'Ljava/util/Random;-><init>()V', u'Landroid/widget/TextView;->getRight()I', u'Landroid/view/View;->getResources()Landroid/content/res/Resources;', u'Lcom/google/ads/n;->b()Z', u'Landroid/content/Intent;->makeRestartActivityTask(Landroid/content/ComponentName;)Landroid/content/Intent;', u'Landroid/os/Parcel;->readBundle()Landroid/os/Bundle;', u'Landroid/content/Context;->getString(I [Ljava/lang/Object;)Ljava/lang/String;', u'Lcom/google/ads/internal/i;->a()Z', u'Landroid/database/Cursor;->setNotificationUri(Landroid/content/ContentResolver; Landroid/net/Uri;)V', u'Landroid/location/Criteria;->setBearingRequired(Z)V', u'Landroid/location/Location;->bearingTo(Landroid/location/Location;)F', u'Lcom/google/ads/ac;-><clinit>()V', u'Ljava/lang/IllegalArgumentException;-><init>(Ljava/lang/String; Ljava/lang/Throwable;)V', u'Landroid/view/View;->isFocusable()Z'\n---\nADDED set([u'Lcom/google/ads/ac;->run()V', u'Landroid/widget/RelativeLayout;->onKeyUp(I Landroid/view/KeyEvent;)Z', u'Lorg/apache/http/HttpEntity;->getContentLength()J', u'Lcom/google/ads/util/AdUtil;->c(Ljava/lang/String;)Ljava/lang/String;', u'Landroid/widget/ImageView;->setMaxHeight(I)V', u'Ljava/io/FileInputStream;->read([B)I', u'Lcom/google/ads/u;->a(Ljava/lang/String; Landroid/webkit/WebView;)Ljava/lang/Runnable;', u'Landroid/app/Activity;->addContentView(Landroid/view/View; Landroid/view/ViewGroup$LayoutParams;)V', u'Lcom/google/ads/AdActivity;->b(Ljava/util/HashMap; Lcom/google/ads/internal/d;)V', u'Ljava/io/FileOutputStream;->write([B)V', u'Ljava/util/Arrays;->sort([I)V', u'Lcom/google/ads/n;->a(Lcom/google/ads/internal/d; Ljava/util/HashMap; Landroid/webkit/WebView;)V', u'Ljava/lang/Math;->round(D)J', u'Landroid/webkit/WebView;->clearCache(Z)V', u'Landroid/view/animation/DecelerateInterpolator;-><init>()V', u'Lcom/google/ads/util/g;->a(Landroid/webkit/WebSettings; Lcom/google/ads/m"
p57
sg5
S'CHANGED (JI 58.06%)'
p58
sg7
F58.060000000000002
sa(dp59
g3
S'\nDELETED set([u\'lignes_autobus.name AS name\', u\' mTag=\', u\'failWrite: Got exception:\', u\'&utmul=%s-%s\', u\' did not call through to super.onDestroyView()\', u\' index requested: \', u"%\')", u\'bike\', u\'create table favs (_id integer primary key autoincrement, type integer, fk_id text, fk_id2 text, title text);\', u\'cv_index\', u\'showSubwayStatusInfoDialog()\', u\'showClosestStop()\', u\'DROP TABLE IF EXISTS referrer;\', u\'/Buses\', u\'PRAGMA auto_vacuum=NONE;\', u\'query>BUS_LINE_DIRECTION_STOPS\', u\' mStateSaved=\', u\'updateDistanceWithNewLocation(%s)\', u\'StmDbHelper(%s, %s)\', u\'android.support.PARENT_ACTIVITY\', u\'Backup state saved.\', u\'tab_bus\', u\'refreshBusLines()\', u\'query>SUBWAY_STATIONS_LOC_LAT_LNG\', u\'XRMsX/JQwPQGX7sOWjvg2nQVjUMO7xUcwxz6xwHRTKyo/tTIVco9OqenUPNGgQDi\', u\'/ de \', u\'&utmipn\', u\'findBusStopsWithLineInfoList(%s)\', u\'dispatch()\', u\'onWindowFocusChanged(%s)\', u\'&utmipc\', u\' \\xb1 \', u\'&utmipr\', u\'arrets_autobus._id=\', u\' mArgs=\', u\'+\', u\'directions_metro\', u\' id=0x\', u\'getInputStreamToFile(%s)\', \n---\nADDED set([u\'Setup finished.\', u\'pto\', u\'Cannot find offer \', u\'Cannot find hook: \', u\'&ats=\', u\'Appear\', u\'com.tapglider\', u\'Unknown\', u\', purchase: \', u\'result = null, httpResponse.getEntity() is null\', u\'my_featureview_layout\', u"Can\'t start async operation (", u\'Y29tLmFuZHJvaWQudmVuZGluZy5DSEVDS19MSUNFTlNF\', u"Items of type \'", u\'com.wordsmobile.RollerBall\', u\'Intent with no response code, assuming OK (known issue)\', u\'android.permission.VIBRATE not available?\', u\'  %s: %d\\n\', u\'Clicks\', u\'EGL_COVERAGE_BUFFERS_NV\', u\'image can not be ready\', u\'launchPurchaseFlow\', u\'Querying SKU details.\', u\'ts\', u\'android.opengl.GLSurfaceView$GLWrapper\', u\'Not running Unity from an Activity; ignored...\', u\'Launching purchase flow for infinite gas subscription.\', u\' in referrer tag \', u\'Header not found (invalid data or key):\', u\'/cache\', u\'/lib\', u\'Loaded data: tank = \', u\'Subscriptions AVAILABLE.\', u\'homer\', u\'GT\', u\'premium\', u\'GR\', u\'Event count incremented: \', u\'Sync to server\', u\'Unknown purchase r'
p60
sg5
S'CHANGED (JI 20.73%)'
p61
sg7
F20.73
sa(dp62
g3
S"\nDELETED set(['Lcom/google/ads/al;->a Ljava/lang/String; [access_flags=private]\\n', 'Lorg/montrealtransit/android/activity/BusStopInfo$3;->this$0 Lorg/montrealtransit/android/activity/BusStopInfo; [access_flags=synthetic final]\\n', 'Lorg/montrealtransit/android/activity/v4/BusLineDirectionFragment;->busStops Ljava/util/List; [access_flags=private]\\n', 'Lcom/google/ads/e;->c Ljava/lang/Object; [access_flags=private final]\\n', 'Lorg/montrealtransit/android/activity/BikeTab;->lastSensorAcceleration F [access_flags=private]\\n', 'Lcom/google/ads/ag$i;->a Lcom/google/ads/ag; [access_flags=synthetic final]\\n', 'Lcom/google/ads/as;->a Landroid/net/Uri; [access_flags=public static final]\\n', 'Lcom/google/ads/ag;->bB I [access_flags=0x0]\\n', 'Lorg/montrealtransit/android/provider/DataStore$Fav;->id I [access_flags=private]\\n', 'Landroid/support/v4/app/Fragment;->mContainer Landroid/view/ViewGroup; [access_flags=0x0]\\n', 'Lorg/montrealtransit/android/provider/DataStore$ServiceStatus;->sourceLink Ljava/lan\n---\nADDED set(['Lcom/doodlemobile/gamecenter/billing/util/Purchase;->mSignature Ljava/lang/String; [access_flags=0x0]\\n', 'Lcom/unity3d/player/a/k;->d Ljava/lang/String; [access_flags=public]\\n', 'Lcom/unity3d/player/c;->a Landroid/content/ContextWrapper; [access_flags=protected final]\\n', 'Lcom/google/ads/ag;->a Lcom/google/ads/internal/a; [access_flags=private static final]\\n', 'Lcom/google/ads/af;->d [Ljava/lang/String; [access_flags=public static final]\\n', 'Lcom/doodlemobile/gamecenter/billing/util/IabHelper$1;->val$listener Lcom/doodlemobile/gamecenter/billing/util/IabHelper$OnIabSetupFinishedListener; [access_flags=private synthetic final]\\n', 'Lcom/unity3d/player/p;->I [F [access_flags=private]\\n', 'Lcom/unity3d/player/UnityPlayer$13;->c I [access_flags=private synthetic]\\n', 'Lcom/flurry/android/v;->p Z [access_flags=private]\\n', 'Lcom/google/ads/ag$c;->a Z [access_flags=private final]\\n', 'Lcom/unity3d/player/UnityPlayer;->Z I [access_flags=private]\\n', 'Lcom/flurry/android/ab;->b J [a"
p63
sg5
S'CHANGED (JI 8.43%)'
p64
sg7
F8.4299999999999997
sa.