(lp1
(dp2
S'detailed'
p3
S'DIFFERENT: 2!=2022'
p4
sS'not_detailed'
p5
S'CHANGED'
p6
sS'score'
p7
I0
sa(dp8
g3
S'DIFFERENT: 1.0.1!=1.0'
p9
sg5
S'CHANGED'
p10
sg7
I0
sa(dp11
g3
S'DIFFERENT: 7!=9'
p12
sg5
S'CHANGED'
p13
sg7
I0
sa(dp14
g3
S'EQUAL'
p15
sg5
S'EQUAL'
p16
sg7
I100
sa(dp17
g3
S'DIFFERENT: None!=15'
p18
sg5
S'CHANGED'
p19
sg7
I0
sa(dp20
g3
S'DIFFERENT: 7!=15'
p21
sg5
S'CHANGED'
p22
sg7
I0
sa(dp23
g3
S"\nDELETED set([])\n---\nADDED set(['android.permission.READ_PHONE_STATE', 'com.g5e.nightmares2.android.permission.C2D_MESSAGE', 'com.google.android.c2dm.permission.RECEIVE', 'android.permission.ACCESS_WIFI_STATE', 'android.permission.WAKE_LOCK', 'com.android.vending.CHECK_LICENSE', 'android.permission.GET_ACCOUNTS'])"
p24
sg5
S'CHANGED (JI 36.36%)'
p25
sg7
F36.359999999999999
sa(dp26
g3
S'DIFFERENT: com.eyelead.bunnymazehd!=com.g5e.nightmares2.android'
p27
sg5
S'CHANGED'
p28
sg7
I0
sa(dp29
g3
S'DIFFERENT: Bunny Maze HD!=Nightmares 2'
p30
sg5
S'CHANGED'
p31
sg7
I0
sa(dp32
g3
S"\nDELETED set(['com.eyelead.bunnymazehd..bunnymazehd'])\n---\nADDED set(['com.g5e.KDLauncherActivity', 'com.facebook.LoginActivity', 'com.arellomobile.android.push.MessageActivity', 'com.arellomobile.android.push.PushWebview', 'com.g5e.nightmares2.android.Pirates2Activity', 'com.arellomobile.android.push.PushHandlerActivity'])"
p33
sg5
S'CHANGED (JI 0.0%)'
p34
sg7
F0
sa(dp35
g3
S"\nDELETED set(['assets/game/textures/ui/ui_billing_pressed.png', 'assets/game/textures/ui/dimmer.png', 'assets/game/textures/ui/menu_yes_pressed.png', 'assets/game/levelsets/generic/generic.hvfs', 'assets/generic/shaders/func/demux.mat', 'assets/game/textures/tutorial/12.dds', 'assets/game/sounds/pingu-turn.wav', 'assets/game/textures/ui/menu_volume_fg.png', 'assets/game/scripts/ui.billing.hs', 'assets/game/levelsets/snow/crack.hs', 'assets/game/sounds/trap-icecrack-fallcrack.wav', 'assets/game/levelsets/desert/textures/desert.notebook.dds', 'assets/game/textures/ui/ui_soundoff.png', 'assets/game/levelsets/forest/textures/enemy.forest.color.dds', 'assets/game/textures/ui/smalloptions_pressed.png', 'assets/game/levelsets/city/textures/levelset_bg_city.dds', 'assets/game/levelsets/snow/textures/tileset_snow_traps.color.dds', 'assets/game/textures/ui/ui_loading_hive3d.png', 'assets/game/sounds/dragon-item.wav', 'assets/game/textures/tutorial/7.dds', 'assets/game/textures/ui/play_pressed.png', 'asse\n---\nADDED set(['res/drawable-mdpi/com_facebook_button_blue_focused.9.png', 'res/drawable-hdpi/com_facebook_button_grey_normal.9.png', 'res/drawable-xhdpi/com_facebook_button_grey_pressed.9.png', 'res/drawable/com_facebook_list_section_header_background.9.png', 'lib/x86/libPirates2Activity.so', 'res/drawable-hdpi/com_facebook_picker_magnifier.png', 'res/drawable-hdpi/com_facebook_logo.png', 'res/drawable-hdpi/com_facebook_button_blue_normal.9.png', 'lib/armeabi-v7a/libogg.so', 'res/drawable-xhdpi/icon.png', 'res/drawable/com_facebook_button_check.xml', 'res/drawable/com_facebook_picker_list_longpressed.9.png', 'res/layout/com_facebook_picker_list_section_header.xml', 'com/g5e/close.png', 'res/layout/com_facebook_placepickerfragment.xml', 'res/layout/com_facebook_search_bar_layout.xml', 'res/drawable/com_facebook_picker_list_selector.xml', 'res/drawable-xhdpi/com_facebook_inverse_icon.png', 'res/drawable/splashscreen.png', 'res/drawable/com_facebook_profile_default_icon.png', 'assets/fsExtra.manif"
p36
sg5
S'CHANGED (JI 1.2%)'
p37
sg7
F1.2
sa(dp38
g3
S"\nDELETED set(['com.eyelead.bunnymazehd.BillingService'])\n---\nADDED set(['com.g5e.KDDownloadService', 'com.arellomobile.android.push.PushGCMIntentService', 'net.robotmedia.billing.BillingService'])"
p39
sg5
S'CHANGED (JI 0.0%)'
p40
sg7
F0
sa(dp41
g3
S"\nDELETED set(['com.eyelead.bunnymazehd.BillingReceiver'])\n---\nADDED set(['com.fiksu.asotracking.InstallTracking', 'com.google.android.gcm.GCMBroadcastReceiver', 'net.robotmedia.billing.BillingReceiver', 'com.g5e.KDDownloadReceiver'])"
p42
sg5
S'CHANGED (JI 0.0%)'
p43
sg7
F0
sa(dp44
g3
S"\nDELETED set([u'Lcom/eyelead/bunnymazehd/bunnymazehd;', u'Lcom/eyelead/bunnymazehd/R;', u'Lcom/google/android/apps/analytics/GoogleAnalyticsTracker;', u'Ljava/lang/NumberFormatException;', u'Lcom/eyelead/hive/HiveView$1;', u'Lcom/google/android/apps/analytics/GoogleAnalyticsTracker$DispatcherCallbacks$1;', u'Lcom/eyelead/hive/HiveLib$AnalyticsClearTransactions;', u'Ljavax/microedition/khronos/egl/EGL10;', u'[Lcom/eyelead/bunnymazehd/Consts$PurchaseState;', u'Lcom/eyelead/hive/HiveActivity;', u'Lorg/apache/http/ProtocolVersion;', u'Lcom/eyelead/hive/HiveLib$AnalyticsAddItem;', u'Lcom/eyelead/hive/HiveLib$AnalyticsDispatch;', u'Lcom/eyelead/bunnymazehd/BillingService$ConfirmNotifications;', u'Landroid/media/AudioTrack;', u'Lcom/google/android/apps/analytics/PipelinedRequester$Callbacks;', u'Lcom/google/android/apps/analytics/Dispatcher$Callbacks;', u'Lcom/eyelead/hive/HiveLib$1;', u'Lcom/google/android/apps/analytics/NetworkDispatcher$DispatcherThread;', u'Ljavax/microedition/khronos/opengles/GL1\n---\nADDED set([u'Ljava/io/FileNotFoundException;', u'Landroid/support/v4/widget/SearchViewCompatHoneycomb$1;', u'Lcom/android/vending/expansion/downloader/DownloaderClientMarshaller$Proxy;', u'Lcom/playnomics/android/events/AppStartEvent;', u'Ljava/util/LinkedHashMap;', u'Lcom/facebook/widget/PickerFragment$4;', u'Lcom/facebook/TestSession$FqlResponse;', u'Ljunit/framework/Assert;', u'[Lcom/facebook/internal/SessionAuthorizationType;', u'Landroid/support/v4/app/FragmentManager$OnBackStackChangedListener;', u'Ljava/util/concurrent/TimeUnit;', u'Landroid/support/v4/net/ConnectivityManagerCompatGingerbread;', u'Ljava/util/Calendar;', u'Lcom/facebook/widget/PickerFragment$OnDoneButtonClickedListener;', u'Lnet/robotmedia/billing/utils/AESObfuscator$ValidationException;', u'Landroid/support/v4/view/AccessibilityDelegateCompat$AccessibilityDelegateIcsImpl$1;', u'Ljavax/crypto/spec/IvParameterSpec;', u'Lcom/android/vending/expansion/downloader/impl/DownloadsDB;', u'Lcom/facebook/AppEventsLogger$EventSup"
p45
sg5
S'CHANGED (JI 5.85%)'
p46
sg7
F5.8499999999999996
sa(dp47
g3
S"\nDELETED set([u'Lcom/google/android/apps/analytics/HitStore;->setAnonymizeIp(Z)V', u'Lcom/google/android/apps/analytics/GoogleAnalyticsTracker;->maybeScheduleNextDispatch()V', u'Lcom/google/android/apps/analytics/Transaction;-><init>(Lcom/google/android/apps/analytics/Transaction$Builder;)V', u'Lorg/fmod/FMODAudioDevice;->fmodGetInfo(I)I', u'Lcom/google/android/apps/analytics/HitBuilder;->constructTransactionRequestPath(Lcom/google/android/apps/analytics/Event; Lcom/google/android/apps/analytics/Referrer;)Ljava/lang/String;', u'Lcom/eyelead/hive/HiveSettings;-><init>()V', u'Lcom/google/android/apps/analytics/Event;->setVisits(I)V', u'Lcom/eyelead/bunnymazehd/ResponseHandler;-><init>()V', u'Lcom/eyelead/hive/HiveLib;->appprop_writeProp(Ljava/lang/String; Ljava/util/ArrayList;)V', u'Lcom/google/android/apps/analytics/GoogleAnalyticsTracker;->startNewSession(Ljava/lang/String; I Landroid/content/Context;)V', u'Lcom/eyelead/bunnymazehd/Consts$PurchaseState;->valueOf(Ljava/lang/String;)Lcom/eyelead/\n---\nADDED set([u'Landroid/support/v4/app/ListFragment;->setListShown(Z)V', u'Lcom/facebook/model/GraphObject$Factory$GraphObjectListImpl;->put(I Ljava/lang/Object;)V', u'Lcom/playnomics/android/util/Util;->getDeviceLanguage()Ljava/lang/String;', u'Lcom/facebook/widget/FacebookDialog$OpenGraphActionDialogBuilder;->access$600(Lcom/facebook/widget/FacebookDialog$OpenGraphActionDialogBuilder;)Ljava/util/HashMap;', u'Lcom/flurry/sdk/cl;->x()V', u'Lcom/facebook/widget/WebDialog;->setUpWebView(I)V', u'Landroid/support/v4/app/ShareCompat$IntentReader;->getEmailCc()[Ljava/lang/String;', u'Lcom/facebook/Session;->onActivityResult(Landroid/app/Activity; I I Landroid/content/Intent;)Z', u'Lcom/flurry/sdk/bx;->c(Ljava/lang/String; Ljava/util/Map;)V', u'Lnet/robotmedia/billing/model/BillingDB;->insert(Lnet/robotmedia/billing/model/Transaction;)V', u'Landroid/support/v4/app/FragmentManagerImpl;->dispatchLowMemory()V', u'Landroid/support/v4/app/DialogFragment;->dismiss()V', u'Landroid/support/v4/app/FragmentAct"
p48
sg5
S'CHANGED (JI 0.08%)'
p49
sg7
F0.080000000000000002
sa(dp50
g3
S'EQUAL (JI 100%)'
p51
sg5
S'EQUAL (JI 100%)'
p52
sg7
I100
sa(dp53
g3
S"\nDELETED set([u'Lcom/google/android/apps/analytics/HitStore;->setAnonymizeIp(Z)V', u'Lcom/google/android/apps/analytics/GoogleAnalyticsTracker;->maybeScheduleNextDispatch()V', u'Lcom/google/android/apps/analytics/Transaction;-><init>(Lcom/google/android/apps/analytics/Transaction$Builder;)V', u'Lorg/fmod/FMODAudioDevice;->fmodGetInfo(I)I', u'Lorg/apache/http/HttpConnectionMetrics;->getResponseCount()J', u'Lcom/eyelead/bunnymazehd/Consts;-><init>()V', u'Lcom/google/android/apps/analytics/HitBuilder;->constructTransactionRequestPath(Lcom/google/android/apps/analytics/Event; Lcom/google/android/apps/analytics/Referrer;)Ljava/lang/String;', u'Lcom/eyelead/hive/HiveSettings;-><init>()V', u'Lcom/google/android/apps/analytics/Event;->setVisits(I)V', u'Landroid/media/AudioTrack;-><init>(I I I I I I)V', u'Lcom/eyelead/hive/HiveLib;->appprop_writeProp(Ljava/lang/String; Ljava/util/ArrayList;)V', u'Lcom/google/android/apps/analytics/GoogleAnalyticsTracker;->startNewSession(Ljava/lang/String; I Landroid/co\n---\nADDED set([u'Landroid/support/v4/app/ListFragment;->setListShown(Z)V', u'Lorg/apache/http/HttpEntity;->getContentLength()J', u'Lcom/facebook/model/GraphObject$Factory$GraphObjectListImpl;->put(I Ljava/lang/Object;)V', u'Lcom/facebook/widget/FacebookDialog$OpenGraphActionDialogBuilder;->access$600(Lcom/facebook/widget/FacebookDialog$OpenGraphActionDialogBuilder;)Ljava/util/HashMap;', u'Landroid/view/accessibility/AccessibilityRecord;->setToIndex(I)V', u'Lcom/facebook/widget/WebDialog;->setUpWebView(I)V', u'Landroid/support/v4/app/ShareCompat$IntentReader;->getEmailCc()[Ljava/lang/String;', u'Landroid/view/accessibility/AccessibilityManager;->addAccessibilityStateChangeListener(Landroid/view/accessibility/AccessibilityManager$AccessibilityStateChangeListener;)Z', u'Landroid/content/Intent;->setAction(Ljava/lang/String;)Landroid/content/Intent;', u'Landroid/webkit/WebView;-><init>(Landroid/content/Context;)V', u'Lnet/robotmedia/billing/model/BillingDB;->insert(Lnet/robotmedia/billing/model/Tran"
p54
sg5
S'CHANGED (JI 2.61%)'
p55
sg7
F2.6099999999999999
sa(dp56
g3
S"\nDELETED set([u'Lorg/apache/http/StatusLine;->getProtocolVersion()Lorg/apache/http/ProtocolVersion;', u'Landroid/database/sqlite/SQLiteDatabase;->endTransaction()V', u'Landroid/view/KeyEvent;->isAltPressed()Z', u'Ljava/util/LinkedList;->size()I', u'Landroid/database/sqlite/SQLiteDatabase;->beginTransaction()V', u'Lorg/apache/http/HttpEntity;->consumeContent()V', u'Landroid/database/Cursor;->getColumnNames()[Ljava/lang/String;', u'Ljava/io/DataInputStream;->close()V', u'Landroid/view/KeyEvent;->getScanCode()I', u'Lorg/apache/http/HttpRequest;->getAllHeaders()[Lorg/apache/http/Header;', u'Lorg/apache/http/HttpResponse;->getHeaders(Ljava/lang/String;)[Lorg/apache/http/Header;', u'Lorg/apache/http/conn/scheme/PlainSocketFactory;-><init>()V', u'Lorg/apache/http/HttpHost;->getHostName()Ljava/lang/String;', u'Ljava/util/LinkedList;->get(I)Ljava/lang/Object;', u'Landroid/database/sqlite/SQLiteDatabase;->setTransactionSuccessful()V', u'Lorg/apache/http/HttpHost;-><init>(Ljava/lang/String; I)V', u'Landro\n---\nADDED set([u'Ljava/lang/System;->getProperties()Ljava/util/Properties;', u'Landroid/os/Bundle;->putSerializable(Ljava/lang/String; Ljava/io/Serializable;)V', u'Lorg/apache/http/HttpEntity;->getContentLength()J', u'Landroid/os/Bundle;->keySet()Ljava/util/Set;', u'Landroid/content/Intent;->putExtra(Ljava/lang/String; Ljava/io/Serializable;)Landroid/content/Intent;', u'Landroid/app/Activity;->getComponentName()Landroid/content/ComponentName;', u'Lorg/json/JSONObject;->isNull(Ljava/lang/String;)Z', u'Landroid/content/Context;->obtainStyledAttributes(I [I)Landroid/content/res/TypedArray;', u'Landroid/content/Intent;->setAction(Ljava/lang/String;)Landroid/content/Intent;', u'Landroid/app/Activity;->addContentView(Landroid/view/View; Landroid/view/ViewGroup$LayoutParams;)V', u'Ljava/util/List;->indexOf(Ljava/lang/Object;)I', u'Ljava/lang/Object;->wait(J)V', u'Landroid/os/Looper;->myLooper()Landroid/os/Looper;', u'Landroid/content/pm/PackageManager;->resolveActivity(Landroid/content/Intent; I)Landro"
p57
sg5
S'CHANGED (JI 29.58%)'
p58
sg7
F29.579999999999998
sa(dp59
g3
S'\nDELETED set([u\'&aip=1\', u\'5(%s*%s\', u\'Calling Analytics AddItem on uninitialized object\', u\'timestamp_current\', u\'__##GOOGLEITEM##__\', u\'No transaction with orderId \', u\'Surface lost\', u\'random_val\', u\'Attempted to add an item to an event of type \', u\' bytes\', u\'cv_index = ?\', u\'DELETE from item_events;\', u\'DELETE from custom_variables;\', u\'Referrer store attemped succeeded.\', u\'BillingService: Error with requestPurchase\', u\'onSurfaceChanged: End (WRONG ORIENTATION)\', u\'Context destroyed\', u\'hit_string\', u\'In-App billing is not supported\', u\'random:\', u\'&utmt=event\', u\'&utmul=%s-%s\', u\'itemSKU must not be empty or null\', u\'Context Created\', u\'utmcct\', u\'Looking for \', u\'Security: JSON exception: \', u\'item_name\', u\'Creating cache folder\', u\'cache\', u\'cv_id\', u\'/__utm.gif\', u\'Encoded form of name and value must not exceed 64 characters combined.  Character length: \', u\'Host\', u\'CREATE TABLE transaction_events (\', u\'cv_index\', u\'Reading configuration\', u\'missing expected transaction for event \', \n---\nADDED set([u\'push message is \', u\'EVERYONE\', u\'eventKeys.transactionCurrencyTypeFormatKey\', u\'Could not generate a valid URL from this String %s\', u\'auth.expireSession failed\', u\'basic_info\', u"Internal error. Block wasn\'t deleted with id = ", u\'SUPPRESS_SSO\', u\'limitEventUsage\', u\'dm_ledon\', u\' mTag=\', u\'woody\', u\' did not call through to super.onDestroyView()\', u\'  %s:\\t%s\\n\', u\'Send Goal success\', u\' index requested: \', u\'com.android.vending.licensing.ILicenseResultListener\', u\'Header not found (invalid data or key):\', u\' token:\', u\'com.facebook.platform.extra.EXPIRES_SECONDS_SINCE_EPOCH\', u\'.FlurrySenderIndex.info.\', u\'GT\', u\'GR\', u\'_eventName\', u\'&gmtoffset=\', u\'Please set the %1$s constant and recompile the app.\', u\'currentActivity\', u\'should_build_data\', u\'writing \', u\'Event: \', u\' mStateSaved=\', u\'closeButtonType\', u\' mContainerId=#\', u\'android.support.PARENT_ACTIVITY\', u\'ApplicationInfo not found\', u\'Empty string\', u\'MAT\', u\'Caught NullPointerException in FacebookAttribution.getAttr'
p60
sg5
S'CHANGED (JI 3.06%)'
p61
sg7
F3.0600000000000001
sa(dp62
g3
S"\nDELETED set(['Lcom/google/android/apps/analytics/PersistentHitStore;->CREATE_ITEM_EVENTS_TABLE Ljava/lang/String; [access_flags=private static final]\\n', 'Lorg/fmod/FMODAudioDevice;->mInitialised Z [access_flags=private]\\n', 'Lcom/eyelead/hive/HiveView;->TAG Ljava/lang/String; [access_flags=public static]\\n', 'Lcom/eyelead/hive/HiveActivity;->analytics Lcom/google/android/apps/analytics/GoogleAnalyticsTracker; [access_flags=public]\\n', 'Lcom/eyelead/bunnymazehd/Consts$ResponseCode;->RESULT_ERROR Lcom/eyelead/bunnymazehd/Consts$ResponseCode; [access_flags=public static enum final]\\n', 'Lcom/google/android/apps/analytics/Transaction;->totalCost D [access_flags=private final]\\n', 'Lcom/google/android/apps/analytics/NetworkDispatcher$DispatcherThread;->parent Lcom/google/android/apps/analytics/NetworkDispatcher; [access_flags=private final]\\n', 'Lcom/google/android/apps/analytics/NetworkDispatcher;->googleAnalyticsHost Lorg/apache/http/HttpHost; [access_flags=private final]\\n', 'Lcom/eyelead/bunny\n---\nADDED set(['Lcom/flurry/sdk/cl;->M I [access_flags=private]\\n', 'Lcom/android/vending/licensing/APKExpansionPolicy;->mRetryUntil J [access_flags=private]\\n', 'Lcom/mobileapptracker/MATEventItem;->attribute_sub3 Ljava/lang/String; [access_flags=public]\\n', 'Landroid/support/v4/app/Fragment;->mContainer Landroid/view/ViewGroup; [access_flags=0x0]\\n', 'Lcom/facebook/Request;->session Lcom/facebook/Session; [access_flags=private]\\n', 'Lcom/arellomobile/android/push/tags/SendPushTagsAbstractAsyncTask;->mContext Landroid/content/Context; [access_flags=private]\\n', 'Lcom/android/vending/expansion/downloader/DownloaderClientMarshaller$Stub;->mItf Lcom/android/vending/expansion/downloader/IDownloaderClient; [access_flags=private]\\n', 'Lcom/facebook/android/R$layout;->com_facebook_login_activity_layout I [access_flags=public static final]\\n', 'Lcom/facebook/model/GraphObject$Factory$GraphObjectListImpl;->itemType Ljava/lang/Class; [access_flags=private final]\\n', 'Lcom/facebook/internal/WorkQueue;->pe"
p63
sg5
S'CHANGED (JI 0.04%)'
p64
sg7
F0.040000000000000001
sa.