(lp1
(dp2
S'detailed'
p3
S'DIFFERENT: 45!=1'
p4
sS'not_detailed'
p5
S'CHANGED'
p6
sS'score'
p7
I0
sa(dp8
g3
S'DIFFERENT: 6.2!=1.0'
p9
sg5
S'CHANGED'
p10
sg7
I0
sa(dp11
g3
S'DIFFERENT: 7!=6'
p12
sg5
S'CHANGED'
p13
sg7
I0
sa(dp14
g3
S'EQUAL'
p15
sg5
S'EQUAL'
p16
sg7
I100
sa(dp17
g3
S'DIFFERENT: 14!=15'
p18
sg5
S'CHANGED'
p19
sg7
I0
sa(dp20
g3
S'DIFFERENT: 14!=15'
p21
sg5
S'CHANGED'
p22
sg7
I0
sa(dp23
g3
S"\nDELETED set(['android.permission.VIBRATE', 'android.permission.DISABLE_KEYGUARD', 'android.permission.SYSTEM_ALERT_WINDOW', 'android.permission.WAKE_LOCK', 'android.permission.GET_TASKS', 'android.permission.RECEIVE_SMS', 'android.permission.READ_CONTACTS', 'android.hardware.sensor.proximity', 'com.android.vending.CHECK_LICENSE', 'android.permission.READ_SMS'])\n---\nADDED set(['android.permission.ACCESS_NETWORK_STATE', 'android.permission.INTERNET'])"
p24
sg5
S'CHANGED (JI 0.0%)'
p25
sg7
F0
sa(dp26
g3
S'DIFFERENT: com.nlucas.iphonenotifications!=com.GroundSpeedOnline.overtakeextrememotolite'
p27
sg5
S'CHANGED'
p28
sg7
I0
sa(dp29
g3
S'DIFFERENT: iPhone Notifications!=Overtake Extreme Moto'
p30
sg5
S'CHANGED'
p31
sg7
I0
sa(dp32
g3
S"\nDELETED set(['com.nlucas.iphonenotifications.IPhoneNotificationsPreferences', 'com.nlucas.notifications.commons.preference.AlertPreferences', 'com.nlucas.notifications.commons.preference.VibrationPreferences', 'com.nlucas.notifications.commons.preference.AppearancePreferences', 'com.nlucas.notifications.commons.NotificationService', 'com.nlucas.notifications.commons.popup.PopupActivity', 'com.nlucas.notifications.commons.preference.AlertThemeSelector', 'com.nlucas.notifications.commons.preference.BannerThemeSelector', 'com.nlucas.iphonenotifications.Tutorial1Activity', 'com.nlucas.notifications.commons.preference.PrivacyPreferences', 'com.nlucas.notifications.commons.preference.QuietHoursPreferences', 'com.nlucas.notifications.commons.preference.RemindersPreferences', 'com.nlucas.notifications.commons.preference.SingleAppPreferences', 'com.nlucas.iphonenotifications.Tutorial2Activity', 'com.nlucas.iphonenotifications.Main', 'com.nlucas.notifications.commons.preference.BannerPreferences', 'com.\n---\nADDED set(['com.unity3d.player.VideoPlayer', 'com.platoevolved.admobunity.AdMobUnityActivity', 'com.google.ads.AdActivity'])"
p33
sg5
S'CHANGED (JI 0.0%)'
p34
sg7
F0
sa(dp35
g3
S"\nDELETED set([u'res/drawable/smile.png', u'res/layout/titleview.xml', u'res/drawable/tuto4dither.xml', u'res/anim/slide_right_back.xml', u'res/layout/banner_content_big.xml', u'res/drawable-hdpi/ic_vibration.png', u'res/layout/banner_content_old.xml', u'res/drawable-hdpi/vpi__tab_selected_holo.9.png', u'res/drawable/tuto5.png', u'res/drawable/default_separateur.png', u'res/drawable-mdpi/ic_menu_share.png', u'res/drawable-mdpi/vpi__tab_selected_focused_holo.9.png', u'res/drawable-nodpi/preview.png', u'res/drawable-xhdpi/ambilwarna_arrow_right.png', u'res/drawable-hdpi/iconko.png', u'res/drawable/ic_alert_icon.png', u'res/drawable/widget_frame.9.png', u'res/drawable/angry.png', u'res/drawable/multi_choice_app_list_separator.xml', u'res/drawable-hdpi/ic_action_search_old.png', u'res/xml/appearance_preferences.xml', u'res/xml/alert_preferences.xml', u'res/drawable/empty.png', u'res/drawable/smilebig.png', u'res/drawable/dark_dismiss.xml', u'res/drawable/tuto2dither.xml', u'res/drawable/flechegauche\n---\nADDED set(['assets/bin/Data/sharedassets1.assets.split47', 'assets/bin/Data/sharedassets1.assets.split46', 'assets/bin/Data/sharedassets1.assets.split44', 'assets/bin/Data/sharedassets1.assets.split43', 'assets/bin/Data/sharedassets1.assets.split42', 'assets/bin/Data/sharedassets1.assets.split41', 'assets/bin/Data/sharedassets1.assets.split40', 'assets/bin/Data/sharedassets1.assets.split45', 'assets/bin/Data/sharedassets0.assets.split1', 'assets/bin/Data/sharedassets0.assets.split0', 'res/drawable-ldpi/app_icon.png', 'assets/bin/Data/Managed/Assembly-UnityScript-firstpass.dll', 'lib/armeabi-v7a/libunity.so', 'assets/bin/Data/unity default resources', 'assets/bin/Data/Managed/UnityEngine.dll', 'assets/bin/Data/splash.png', 'res/drawable-hdpi/app_icon.png', 'assets/bin/Data/Managed/Boo.Lang.dll', 'assets/bin/Data/sharedassets1.assets.split49', 'assets/bin/Data/Managed/UnityScript.Lang.dll', 'assets/bin/Data/Managed/System.dll', 'assets/bin/Data/sharedassets1.assets.split48', 'assets/libs/armea"
p36
sg5
S'CHANGED (JI 1.67%)'
p37
sg7
F1.6699999999999999
sa(dp38
g3
S"\nDELETED set(['com.nlucas.iphonenotifications.IPhoneNotificationsService'])\n---\nADDED set([])"
p39
sg5
S'CHANGED (JI 0.0%)'
p40
sg7
F0
sa(dp41
g3
S"\nDELETED set(['com.nlucas.notifications.commons.lock.LockReceiver', 'com.nlucas.notifications.commons.AlarmReceiver', 'com.nlucas.notifications.commons.sms.SMSReceiver', 'com.nlucas.notifications.commons.lock.ScreenReceiver'])\n---\nADDED set([])"
p42
sg5
S'CHANGED (JI 0.0%)'
p43
sg7
F0
sa(dp44
g3
S"\nDELETED set([u'Lcom/example/android/actionbarcompat/c;', u'Lcom/nlucas/notifications/commons/preference/s;', u'Lcom/a/a/a/a/c;', u'Lcom/nlucas/notifications/commons/widget/WidgetProvider;', u'Lcom/nlucas/notifications/commons/preference/aj;', u'Lcom/nlucas/iphonenotifications/Main;', u'Lcom/example/android/actionbarcompat/ActionBarListActivity;', u'Landroid/support/v4/app/i;', u'Lcom/nlucas/notifications/commons/preference/cb;', u'Lcom/nlucas/notifications/commons/preference/AlertPreferences;', u'Lcom/viewpagerindicator/k;', u'Lcom/nlucas/notifications/commons/preference/z;', u'Lcom/nlucas/notifications/commons/preference/bj;', u'Lcom/nlucas/notifications/commons/a/a;', u'Lcom/a/a/a/a/j;', u'Landroid/widget/RemoteViewsService;', u'Landroid/preference/EditTextPreference;', u'Landroid/text/format/DateFormat;', u'Lcom/nlucas/notifications/commons/i;', u'Lcom/viewpagerindicator/l;', u'Landroid/support/v4/app/h;', u'Lcom/nlucas/iphonenotifications/c;', u'Lcom/nlucas/notifications/commons/widget/Lor\n---\nADDED set([u'Ljava/lang/ref/WeakReference;', u'Lcom/google/ads/internal/d;', u'Landroid/widget/RelativeLayout$LayoutParams;', u'Lcom/unity3d/player/UnityPlayer$19$1;', u'Lcom/google/ads/internal/c$e;', u'Landroid/view/SurfaceHolder;', u'Landroid/view/SurfaceView;', u'Lcom/unity3d/player/UnityJavaRunnable;', u'Lcom/unity3d/player/UnityPlayer$17;', u'Ljava/util/LinkedHashMap;', u'Lcom/unity3d/player/g$1;', u'Lcom/unity3d/player/k;', u'Lcom/google/ads/util/g;', u'Lcom/google/ads/internal/f$1;', u'Landroid/media/AudioTrack;', u'Lcom/google/ads/af;', u'Ljava/util/concurrent/TimeUnit;', u'Lcom/google/ads/ah$a;', u'Lcom/google/ads/searchads/SearchAdRequest$BorderType;', u'Lcom/platoevolved/admobunity/UnityAndroidInterface$7;', u'Lcom/google/ads/internal/AdWebView$1;', u'Lcom/unity3d/player/a$1;', u'Lcom/google/ads/w;', u'Landroid/webkit/ConsoleMessage$MessageLevel;', u'Lcom/unity3d/player/ad;', u'[Lcom/google/ads/ah$b;', u'Lcom/google/ads/y;', u'Lcom/google/ads/internal/j$a;', u'Lcom/unity3d/player"
p45
sg5
S'CHANGED (JI 10.08%)'
p46
sg7
F10.08
sa(dp47
g3
S"\nDELETED set([u'Lcom/nlucas/notifications/commons/swipetounlock/MyAbsoluteLayout$LayoutParams;-><init>(Landroid/view/ViewGroup$LayoutParams;)V', u'Landroid/support/v4/app/t;->a(Ljava/lang/String; Ljava/io/PrintWriter;)V', u'Lcom/nlucas/notifications/commons/lock/c;->c()V', u'Lcom/nlucas/iphonenotifications/k;->onPreferenceClick(Landroid/preference/Preference;)Z', u'Lcom/nlucas/notifications/commons/lock/c;->a()V', u'Lcom/nlucas/notifications/commons/preference/k;->onPreferenceClick(Landroid/preference/Preference;)Z', u'Landroid/support/v4/view/ViewPager;->a()Landroid/support/v4/view/i;', u'Lcom/nlucas/notifications/commons/preference/PrivacyPreferences;->onCreate(Landroid/os/Bundle;)V', u'Lcom/nlucas/notifications/commons/lockscreen/LockScreenActivityService;-><init>(Landroid/content/Context;)V', u'Lcom/nlucas/notifications/commons/preference/q;-><init>(Lcom/nlucas/notifications/commons/preference/BannerThemeListPreference; B)V', u'Lcom/nlucas/notifications/commons/preference/by;-><init>(Lcom/n\n---\nADDED set([u'Lcom/google/ads/ac;->run()V', u'Lcom/google/ads/AdView;->stopLoading()V', u'Lcom/google/ads/c;-><clinit>()V', u'Lcom/google/ads/util/AdUtil;->c(Ljava/lang/String;)Ljava/lang/String;', u'Lcom/google/ads/util/d;-><clinit>()V', u'Lcom/google/ads/util/b;->d(Ljava/lang/String;)V', u'Lcom/unity3d/player/UnityPlayer;->n(Lcom/unity3d/player/UnityPlayer;)V', u'Lcom/google/ads/searchads/SearchAdRequest;-><init>()V', u'Lcom/google/ads/e$1;-><init>(Lcom/google/ads/e; Lcom/google/ads/c; Lcom/google/ads/AdRequest;)V', u'Lcom/unity3d/player/e$1;->run()V', u'Lcom/google/ads/AdActivity;->b(Ljava/util/HashMap; Lcom/google/ads/internal/d;)V', u'Lcom/platoevolved/admobunity/AdMobUnityActivity;-><init>()V', u'Lcom/google/ads/ae;-><clinit>()V', u'Lcom/google/ads/f;->a()Ljava/lang/String;', u'Lcom/google/ads/AdView;->a(Landroid/app/Activity; Lcom/google/ads/AdSize; Ljava/lang/String;)V', u'Lcom/unity3d/player/UnityPlayer$20;-><init>(Lcom/unity3d/player/UnityPlayer;)V', u'Lcom/unity3d/player/j;->a()I',"
p48
sg5
S'CHANGED (JI 0.0%)'
p49
sg7
F0
sa(dp50
g3
S'EQUAL (JI 100%)'
p51
sg5
S'EQUAL (JI 100%)'
p52
sg7
I100
sa(dp53
g3
S"\nDELETED set([u'Lcom/nlucas/notifications/commons/swipetounlock/MyAbsoluteLayout$LayoutParams;-><init>(Landroid/view/ViewGroup$LayoutParams;)V', u'Landroid/widget/Toast;-><init>(Landroid/content/Context;)V', u'Landroid/widget/TextView;->setTextAppearance(Landroid/content/Context; I)V', u'Landroid/support/v4/app/a;-><init>(Landroid/support/v4/app/j;)V', u'Lcom/nlucas/iphonenotifications/Tutorial1Activity;->startActivity(Landroid/content/Intent;)V', u'Lcom/nlucas/notifications/commons/lock/c;->a()V', u'Ljava/util/List;->indexOf(Ljava/lang/Object;)I', u'Lcom/nlucas/notifications/commons/lockscreen/LockScreenActivityService;-><init>(Landroid/content/Context;)V', u'Landroid/support/v4/app/t;->a(Ljava/lang/String; Ljava/io/PrintWriter;)V', u'Lcom/example/android/actionbarcompat/ActionBarActivity;->onPostCreate(Landroid/os/Bundle;)V', u'Lcom/nlucas/notifications/applist/old/ListPreferenceMultiSelect;->getEntries()[Ljava/lang/CharSequence;', u'Lcom/nlucas/notifications/commons/lockscreen/d;->run()V', u\n---\nADDED set([u'Lcom/google/ads/AdView;->stopLoading()V', u'Lorg/xmlpull/v1/XmlPullParserFactory;->newInstance()Lorg/xmlpull/v1/XmlPullParserFactory;', u'Lcom/unity3d/player/v;->setImageBitmap(Landroid/graphics/Bitmap;)V', u'Landroid/widget/FrameLayout;->onTouchEvent(Landroid/view/MotionEvent;)Z', u'Landroid/view/ViewGroup;->removeAllViews()V', u'Lorg/xmlpull/v1/XmlPullParserFactory;->setNamespaceAware(Z)V', u'Landroid/view/Window;->setGravity(I)V', u'Lcom/google/ads/util/b;->d(Ljava/lang/String;)V', u'Landroid/webkit/WebView;->loadDataWithBaseURL(Ljava/lang/String; Ljava/lang/String; Ljava/lang/String; Ljava/lang/String; Ljava/lang/String;)V', u'Lcom/google/ads/e$1;-><init>(Lcom/google/ads/e; Lcom/google/ads/c; Lcom/google/ads/AdRequest;)V', u'Landroid/widget/VideoView;->setVideoPath(Ljava/lang/String;)V', u'Lcom/google/ads/AdActivity;->b(Ljava/util/HashMap; Lcom/google/ads/internal/d;)V', u'Lcom/google/ads/ae;-><clinit>()V', u'Lcom/unity3d/player/UnityPlayer$20;-><init>(Lcom/unity3d/player/Un"
p54
sg5
S'CHANGED (JI 5.05%)'
p55
sg7
F5.0499999999999998
sa(dp56
g3
S"\nDELETED set([u'Ljava/util/List;->indexOf(Ljava/lang/Object;)I', u'Landroid/widget/TextView;->setTextAppearance(Landroid/content/Context; I)V', u'Landroid/content/Intent;->putExtra(Ljava/lang/String; I)Landroid/content/Intent;', u'Landroid/view/View;->getOverScrollMode()I', u'Landroid/widget/Button;->setTextColor(I)V', u'Landroid/os/Looper;->myLooper()Landroid/os/Looper;', u'Landroid/app/Activity;->onPanelClosed(I Landroid/view/Menu;)V', u'Landroid/view/Window;->getAttributes()Landroid/view/WindowManager$LayoutParams;', u'Landroid/widget/ImageView;->getMeasuredHeight()I', u'Landroid/view/ViewGroup;->getPaddingTop()I', u'Landroid/widget/TextView;->setTextSize(I F)V', u'Landroid/widget/ImageView;->setOnClickListener(Landroid/view/View$OnClickListener;)V', u'Landroid/widget/Button;->setBackgroundResource(I)V', u'Landroid/os/Bundle;->putParcelable(Ljava/lang/String; Landroid/os/Parcelable;)V', u'Landroid/app/Activity;->onPreparePanel(I Landroid/view/View; Landroid/view/Menu;)Z', u'Landroid/view/Vie\n---\nADDED set([u'Landroid/widget/FrameLayout;->onTouchEvent(Landroid/view/MotionEvent;)Z', u'Landroid/app/Activity;->getComponentName()Landroid/content/ComponentName;', u'Landroid/app/Activity;->addContentView(Landroid/view/View; Landroid/view/ViewGroup$LayoutParams;)V', u'Ljava/lang/Object;->wait(J)V', u'Landroid/content/pm/PackageManager;->resolveActivity(Landroid/content/Intent; I)Landroid/content/pm/ResolveInfo;', u'Ljava/util/Map;->remove(Ljava/lang/Object;)Ljava/lang/Object;', u'Landroid/media/MediaPlayer;->getCurrentPosition()I', u'Ljava/util/Arrays;->sort([I)V', u'Landroid/media/MediaPlayer;->setOnPreparedListener(Landroid/media/MediaPlayer$OnPreparedListener;)V', u'Landroid/widget/FrameLayout;->addView(Landroid/view/View; Landroid/view/ViewGroup$LayoutParams;)V', u'Landroid/content/IntentFilter;-><init>()V', u'Ljava/util/Map;->putAll(Ljava/util/Map;)V', u'Landroid/widget/FrameLayout;->requestLayout()V', u'Landroid/view/View;->getWindowVisibleDisplayFrame(Landroid/graphics/Rect;)V', u'La"
p57
sg5
S'CHANGED (JI 30.4%)'
p58
sg7
F30.399999999999999
sa(dp59
g3
S'\nDELETED set([u\' <img src="weep"/> \', u\'all\', u\'getPersonIdFromEmail(): \', u\'Could not parse response.\', u\' for fragment \', u\'com.android.camera.action.CROP\', u\':drawable/footer\', u\'00:00\', u\'content://sms\', u\'com.fsck.k9\', u\'Added Fragments:\', u\' mTag=\', u\'Failure saving state: \', u\'0,100,100,100,100,100\', u\'PreferenceObfuscator\', u\'\\\\s*("[^"]*"|[^<>"]+)\\\\s*<([^<>]+)>\\\\s*\', u\'lockscreennotifications\', u\' did not call through to super.onDestroyView()\', u\'(?:^| ):O(?: |$)\', u\'Finished Retaining in \', u\'quiethours\', u\'hide: \', u\'sa_custom_color\', u\'onlywhenscreenoffdisclaimer\', u\'Error while trying to play ringtone\', u\'onDestroy\', u\'com.android.vending.licensing.ILicenseResultListener\', u\'smsto:\', u\', tag \', u\'TAG\', u\'Header not found (invalid data or key):\', u\'category_appearance\', u\'hidename\', u\' #\', u\'  \', u\'GT\', u\'GR\', u\'faq\', u"\': ", u\'10:30 PM\', u\'_padding\', u\' mStateSaved=\', u\'facebook\', u\'Called doRetain when not started: \', u\'D\\xe9marrage du reminder\', u\'lastResponse\', u\' mRetaining=\', u\n---\nADDED set([u\'pto\', u\'.obb\', u\'No "action" parameter in a video gmsg.\', u\'Unable to ping the URL: \', u\'Cannot show interstitial because it is not loaded and ready.\', u\'/video\', u\'onAdClicked()\', u\'@gw_adnetrefresh@\', u\'isLoadAdTaskSuccessful() called when isLoadAdTaskDone() is false.\', u\'/\', u\'android.permission.INTERNET\', u\'keyboardHidden\', u\'bad base-64\', u\'android.permission.VIBRATE not available?\', u\'  %s: %d\\n\', u\'bin/Data/settings.xml\', u\'GoogleAdMobDoritosLife\', u\'EGL_COVERAGE_BUFFERS_NV\', u\'afma_notify_dt\', u"\'. Expected something starting with \'application/json\'. Aborting mediation.", u\'interstitial_mb\', u\'\\n\\nActual\\nm32bit: \', u\'headersize\', u\'mad_hac\', u\'Unable to initialize camera: \', u\'drt_include\', u\') ad to show interstitial: \', u\'Disabling hardware acceleration on collapsing MRAID WebView.\', u\'/cache\', u\'http://e.admob.com/imp?ad_loc=@gw_adlocid@&qdata=@gw_qdata@&ad_network_id=@gw_adnetid@&js=@gw_sdkver@&session_id=@gw_sessid@&seq_num=@gw_seqnum@&nr=@gw_adnetrefresh@&adt=@gw_'
p60
sg5
S'CHANGED (JI 2.82%)'
p61
sg7
F2.8199999999999998
sa(dp62
g3
S"\nDELETED set(['Lcom/nlucas/notifications/commons/p;->ab I [access_flags=public static final]\\n', 'Lcom/nlucas/notifications/commons/m;->f I [access_flags=public static final]\\n', 'Lcom/viewpagerindicator/g;->e I [access_flags=public static final]\\n', 'Landroid/support/v4/app/j;->h Ljava/util/ArrayList; [access_flags=0x0]\\n', 'Lcom/nlucas/notifications/commons/c/b;->a I [access_flags=public static final]\\n', 'Landroid/support/v4/app/t;->k Z [access_flags=0x0]\\n', 'Landroid/support/v4/view/ViewPager;->m Landroid/graphics/drawable/Drawable; [access_flags=private]\\n', 'Lcom/nlucas/notifications/commons/lock/c;->a Ljava/lang/String; [access_flags=public static]\\n', 'Lcom/viewpagerindicator/g;->i I [access_flags=public static final]\\n', 'Lcom/nlucas/notifications/commons/swipetounlock/d;->f [I [access_flags=private final]\\n', 'Lcom/nlucas/notifications/commons/service/NotificationAccessibilityService;->l Z [access_flags=private]\\n', 'Lcom/nlucas/notifications/commons/preference/cc;->a Lcom/nlucas/not\n---\nADDED set(['Lcom/unity3d/player/ae;->b Lcom/unity3d/player/UnityPlayer; [access_flags=private final]\\n', 'Lcom/unity3d/player/UnityPlayer;->p Landroid/os/PowerManager$WakeLock; [access_flags=private]\\n', 'Lorg/fmod/FMODAudioDevice;->c Lorg/fmod/FMODAudioDevice$a; [access_flags=private bridge]\\n', 'Lcom/google/ads/h;->m Lcom/google/ads/AdRequest; [access_flags=private final]\\n', 'Lcom/unity3d/player/UnityPlayer;->i Landroid/os/Bundle; [access_flags=private]\\n', 'Lcom/google/ads/internal/c;->s Ljava/lang/Thread; [access_flags=private]\\n', 'Lorg/fmod/FMODAudioDevice$a;->b Ljava/lang/Object; [access_flags=private]\\n', 'Lcom/google/ads/AdRequest;->d Lcom/google/ads/AdRequest$Gender; [access_flags=private]\\n', 'Lcom/google/ads/internal/j$a;->a Landroid/gesture/GestureStore; [access_flags=private final]\\n', 'Lcom/unity3d/player/UnityPlayer$9;->e F [access_flags=synthetic final]\\n', 'Lcom/google/ads/AdActivity;->k J [access_flags=private]\\n', 'Lcom/unity3d/player/UnityPlayer$17;->a I [access_flags=s"
p63
sg5
S'CHANGED (JI 0.0%)'
p64
sg7
F0
sa.