(lp1
(dp2
S'detailed'
p3
S'DIFFERENT: 7!=2'
p4
sS'not_detailed'
p5
S'CHANGED'
p6
sS'score'
p7
I0
sa(dp8
g3
S'DIFFERENT: 1.2!=1.0'
p9
sg5
S'CHANGED'
p10
sg7
I0
sa(dp11
g3
S'DIFFERENT: 7!=6'
p12
sg5
S'CHANGED'
p13
sg7
I0
sa(dp14
g3
S'EQUAL'
p15
sg5
S'EQUAL'
p16
sg7
I100
sa(dp17
g3
S'DIFFERENT: 10!=16'
p18
sg5
S'CHANGED'
p19
sg7
I0
sa(dp20
g3
S'DIFFERENT: 10!=16'
p21
sg5
S'CHANGED'
p22
sg7
I0
sa(dp23
g3
S"\nDELETED set(['android.permission.ACCESS_WIFI_STATE'])\n---\nADDED set(['android.permission.WAKE_LOCK'])"
p24
sg5
S'CHANGED (JI 50.0%)'
p25
sg7
F50
sa(dp26
g3
S'DIFFERENT: com.sonicmoov.nekoana!=com.eragonrd.brakefail'
p27
sg5
S'CHANGED'
p28
sg7
I0
sa(dp29
g3
S'DIFFERENT: \xe9\x80\xae\xe5\x92\xaa\xe5\x92\xaa!=Brake Fail'
p30
sg5
S'CHANGED'
p31
sg7
I0
sa(dp32
g3
S"\nDELETED set(['com.sonicmoov.nekoana.MainActivity', 'com.sonicmoov.nekoana.SplashActivity'])\n---\nADDED set(['com.unity3d.player.VideoPlayer', 'com.google.ads.AdActivity', 'com.unity3d.player.UnityPlayerActivity'])"
p33
sg5
S'CHANGED (JI 0.0%)'
p34
sg7
F0
sa(dp35
g3
S"\nDELETED set([u'java-websocket/java_websocket.jar', u'res/drawable/com_facebook_icon.png', u'res/drawable-xhdpi/com_facebook_button_grey_pressed.9.png', u'res/menu/login.xml', u'res/drawable-xhdpi/ic_launcher.png', u'res/drawable-ldpi/ic_launcher.png', u'res/drawable/com_facebook_list_section_header_background.9.png', u'com/sonicmoov/nativejs/module/timer/NJTimer.java_BK', u'res/drawable/com_facebook_profile_picture_blank_portrait.png', u'res/drawable-hdpi/ic_launcher.png', u'res/drawable-hdpi/com_facebook_logo.png', u'res/drawable/home_icon.png', u'res/drawable/com_facebook_button_check.xml', u'res/drawable/com_facebook_loginbutton_blue_focused.png', u'res/layout/com_facebook_picker_list_section_header.xml', u'res/layout/com_facebook_placepickerfragment.xml', u'res/drawable-ldpi/com_facebook_icon.png', u'res/drawable/com_facebook_picker_list_selector.xml', u'res/drawable/com_facebook_profile_default_icon.png', u'res/layout/com_facebook_picker_title_bar.xml', u'META-INF/CERT.RSA', u'res/layout/\n---\nADDED set([u'assets/bin/Data/29eb70d8156a48944bffb2d154a056b9', u'assets/bin/Data/5f5b1fd9efcdb8c4cbb7cfd7d1068d18', u'assets/bin/Data/85c6fb18a6a626443af572e8b36c75d5', u'assets/bin/Data/07f7cc3550f0f984f9ec520ab7740b39', u'assets/bin/Data/sharedassets0.assets.split1', u'assets/bin/Data/sharedassets0.assets.split0', u'assets/bin/Data/b25c91830d4a0ae469cea04ba4ae09ae', u'res/drawable-ldpi/app_icon.png', u'assets/bin/Data/e261d6515863c984f846b9e7d96bbf84', u'assets/bin/Data/31f5a8e6b31d4e24d81d745f2ba5cbb4', u'assets/bin/Data/Managed/AdmobAdLib.dll', u'assets/bin/Data/a33cb394358c5814ab9a2a098384df3b', u'assets/bin/Data/1333117229ed6e04a85b8c434b0560ba', u'assets/bin/Data/unity default resources', u'assets/bin/Data/3b0f6841c81606e4d8d5e7c5f8e258f8', u'assets/bin/Data/772f4be755004734e8c34a5f5576816a', u'assets/bin/Data/Managed/UnityEngine.dll', u'assets/bin/Data/55ed9a6c89bcc084fb8856c73ba209e8', u'assets/bin/Data/d1ebcd00c1d17d441abe69a60007327e', u'assets/bin/Data/f9585a629f3ca7a41863121f0b"
p36
sg5
S'CHANGED (JI 1.59%)'
p37
sg7
F1.5900000000000001
sa(dp38
g3
S'EQUAL (JI 100%)'
p39
sg5
S'EQUAL (JI 100%)'
p40
sg7
I100
sa(dp41
g3
S"\nDELETED set([])\n---\nADDED set(['com.google.ads.InstallReceiver'])"
p42
sg5
S'CHANGED (JI 0.0%)'
p43
sg7
F0
sa(dp44
g3
S"\nDELETED set([u'Landroid/support/v4/widget/SearchViewCompatHoneycomb$1;', u'Lnet/sqlcipher/BulkCursorNative;', u'Lcom/google/common/collect/Maps$FilteredEntryMap$KeySet$1;', u'Lcom/google/common/collect/Synchronized$SynchronizedRandomAccessList;', u'Lcom/sonicmoov/loader/datauri/DataURINativeLoader$1;', u'Lcom/google/common/collect/Synchronized$SynchronizedAsMapValues;', u'Lcom/google/common/collect/LinkedHashMultimap$SetDecorator;', u'Lcom/google/common/primitives/Booleans;', u'Lcom/sonicmoov/nativejs/module/billing/NJBilling$IPurchaseInfo;', u'Landroid/support/v4/content/IntentCompat$IntentCompatImplHC;', u'Lcom/facebook/widget/PickerFragment$4;', u'Lcom/facebook/TestSession$FqlResponse;', u'Ljava/util/concurrent/BlockingQueue;', u'Lcom/google/common/annotations/VisibleForTesting;', u'Lcom/google/common/collect/SortedMaps$1;', u'Landroid/support/v4/app/FragmentManager$OnBackStackChangedListener;', u'Lcom/facebook/widget/GraphObjectPagingLoader$OnErrorListener;', u'Lcom/google/common/collect/M\n---\nADDED set([u'Lcom/google/ads/util/i$d;', u'Ljava/util/Calendar;', u'Lcom/google/ads/internal/c$e;', u'Lcom/google/ads/m$a;', u'Lcom/unity3d/player/UnityJavaRunnable;', u'Lcom/unity3d/player/UnityPlayer$17;', u'Lcom/unity3d/player/k;', u'Lcom/google/ads/util/g;', u'Lcom/google/ads/internal/f$1;', u'Landroid/media/AudioTrack;', u'Lcom/google/ads/af;', u'Lcom/unity3d/player/r$5;', u'Lcom/unity3d/player/n;', u'Lcom/google/ads/searchads/SearchAdRequest$BorderType;', u'Lcom/google/ads/internal/AdWebView$1;', u'Lcom/unity3d/player/a$1;', u'Lcom/google/ads/internal/k$a$1;', u'Lcom/google/ads/w;', u'Lcom/unity3d/player/r$6;', u'Landroid/webkit/ConsoleMessage$MessageLevel;', u'Lcom/google/ads/ao;', u'Lcom/google/ads/y;', u'Lcom/google/ads/internal/j$a;', u'Lcom/neatplug/u3d/plugins/google/admob/k;', u'Lcom/unity3d/player/r;', u'Landroid/graphics/RectF;', u'Lcom/google/ads/internal/k;', u'Lcom/unity3d/player/s$3;', u'Lcom/google/ads/util/g$a$3;', u'Lcom/google/ads/InterstitialAd;', u'Lcom/unity3d/playe"
p45
sg5
S'CHANGED (JI 5.34%)'
p46
sg7
F5.3399999999999999
sa(dp47
g3
S"\nDELETED set([u'Landroid/support/v4/app/ListFragment;->setListShown(Z)V', u'Lcom/facebook/model/GraphObject$Factory$GraphObjectListImpl;->put(I Ljava/lang/Object;)V', u'Landroid/support/v4/app/ActivityOptionsCompat$ActivityOptionsImplJB;->update(Landroid/support/v4/app/ActivityOptionsCompat;)V', u'Lcom/google/common/collect/CustomConcurrentHashMap$ValueReference;->copyFor(Lcom/google/common/collect/CustomConcurrentHashMap$ReferenceEntry;)Lcom/google/common/collect/CustomConcurrentHashMap$ValueReference;', u'Lcom/google/common/primitives/Longs$LexicographicalComparator;->valueOf(Ljava/lang/String;)Lcom/google/common/primitives/Longs$LexicographicalComparator;', u'Lcom/google/common/collect/ForwardingSortedSetMultimap;->delegate()Lcom/google/common/collect/SortedSetMultimap;', u'Lcom/facebook/widget/WebDialog;->setUpWebView(I)V', u'Lcom/facebook/widget/PlacePickerFragment$SearchTextWatcher;-><init>(Lcom/facebook/widget/PlacePickerFragment; Lcom/facebook/widget/PlacePickerFragment$SearchTextWatche\n---\nADDED set([u'Lcom/google/ads/AdView;->stopLoading()V', u'Lcom/unity3d/player/UnityPlayer$24;->run()V', u'Lcom/google/ads/c;-><clinit>()V', u'Lcom/unity3d/player/UnityPlayer;->nativeInitWWW(Ljava/lang/Class;)V', u'Lcom/unity3d/player/u;-><init>(Ljavax/microedition/khronos/egl/EGL10; Ljavax/microedition/khronos/egl/EGLDisplay; Ljavax/microedition/khronos/egl/EGLConfig;)V', u'Lcom/google/ads/util/b;->d(Ljava/lang/String;)V', u'Lcom/google/ads/ap;->a([B I I [C Z)Ljava/lang/String;', u'Lcom/google/ads/internal/d;->a(J)V', u'Lcom/google/ads/internal/a;->a(Landroid/net/Uri; Ljava/util/HashMap;)Ljava/lang/String;', u'Lcom/neatplug/u3d/plugins/google/admob/m;->onReceiveAd(Lcom/google/ads/Ad;)V', u'Lcom/google/ads/mediation/MediationAdRequest;->getBirthday()Ljava/util/Date;', u'Lcom/google/ads/f;->a()Ljava/lang/String;', u'Lcom/unity3d/player/v;-><init>(Z I I I I)V', u'Lcom/google/ads/AdView;->a(Landroid/app/Activity; Lcom/google/ads/AdSize; Ljava/lang/String;)V', u'Lcom/unity3d/player/UnityPlayer$20;"
p48
sg5
S'CHANGED (JI 0.0%)'
p49
sg7
F0
sa(dp50
g3
S'EQUAL (JI 100%)'
p51
sg5
S'EQUAL (JI 100%)'
p52
sg7
I100
sa(dp53
g3
S"\nDELETED set([u'Landroid/support/v4/app/ListFragment;->setListShown(Z)V', u'Lcom/facebook/model/GraphObject$Factory$GraphObjectListImpl;->put(I Ljava/lang/Object;)V', u'Landroid/support/v4/app/ActivityOptionsCompat$ActivityOptionsImplJB;->update(Landroid/support/v4/app/ActivityOptionsCompat;)V', u'Landroid/util/SparseArray;->remove(I)V', u'Lcom/google/common/primitives/Longs$LexicographicalComparator;->valueOf(Ljava/lang/String;)Lcom/google/common/primitives/Longs$LexicographicalComparator;', u'Lcom/facebook/widget/WebDialog;->setUpWebView(I)V', u'Lcom/google/common/collect/MapConstraints$ConstrainedEntries;->remove(Ljava/lang/Object;)Z', u'Lcom/google/common/collect/Sets$2;->contains(Ljava/lang/Object;)Z', u'Lcom/sonicmoov/nativejs/module/billing/android/goolgeplay/GooglePlayAPI;->access$1(Lcom/sonicmoov/nativejs/module/billing/android/goolgeplay/GooglePlayAPI;)Landroid/os/Handler;', u'Lnet/sqlcipher/MatrixCursor;-><init>([Ljava/lang/String;)V', u'Landroid/view/accessibility/AccessibilityRecor\n---\nADDED set([u'Lcom/google/ads/AdView;->stopLoading()V', u'Lorg/xmlpull/v1/XmlPullParserFactory;->newInstance()Lorg/xmlpull/v1/XmlPullParserFactory;', u'Landroid/widget/FrameLayout;->onTouchEvent(Landroid/view/MotionEvent;)Z', u'Landroid/view/ViewGroup;->removeAllViews()V', u'Lorg/xmlpull/v1/XmlPullParserFactory;->setNamespaceAware(Z)V', u'Lcom/google/ads/util/b;->d(Ljava/lang/String;)V', u'Landroid/webkit/WebView;->loadDataWithBaseURL(Ljava/lang/String; Ljava/lang/String; Ljava/lang/String; Ljava/lang/String; Ljava/lang/String;)V', u'Lcom/google/ads/internal/d;->a(J)V', u'Landroid/widget/VideoView;->setVideoPath(Ljava/lang/String;)V', u'Lcom/unity3d/player/w;->onPause()V', u'Landroid/media/AudioTrack;-><init>(I I I I I I)V', u'Lcom/unity3d/player/UnityPlayer$20;-><init>(Lcom/unity3d/player/UnityPlayer;)V', u'Lcom/unity3d/player/e$1$1;-><init>(Lcom/unity3d/player/e$1; I)V', u'Lcom/google/ads/internal/i;->onPageFinished(Landroid/webkit/WebView; Ljava/lang/String;)V', u'Ljava/util/Arrays;->sort("
p54
sg5
S'CHANGED (JI 2.65%)'
p55
sg7
F2.6499999999999999
sa(dp56
g3
S"\nDELETED set([u'Ljava/lang/Character;->isLetter(C)Z', u'Ljava/util/List;->indexOf(Ljava/lang/Object;)I', u'Landroid/os/Bundle;->keySet()Ljava/util/Set;', u'Landroid/content/Context;->obtainStyledAttributes(I [I)Landroid/content/res/TypedArray;', u'Landroid/util/Log;->e(Ljava/lang/String; Ljava/lang/String; Ljava/lang/Throwable;)I', u'Ljava/lang/Float;->floatToIntBits(F)I', u'Landroid/widget/TextView;->setTextAppearance(Landroid/content/Context; I)V', u'Landroid/os/Looper;->myLooper()Landroid/os/Looper;', u'Landroid/webkit/WebViewClient;->onReceivedError(Landroid/webkit/WebView; I Ljava/lang/String; Ljava/lang/String;)V', u'Landroid/view/View;->postInvalidateOnAnimation()V', u'Landroid/view/Display;->getRotation()I', u'Ljava/lang/Character;->charValue()C', u'Landroid/view/ViewGroup;->getId()I', u'Landroid/widget/ImageView;->getTag()Ljava/lang/Object;', u'Landroid/view/View;->getResources()Landroid/content/res/Resources;', u'Landroid/widget/EditText;->getWindowToken()Landroid/os/IBinder;', u'Land\n---\nADDED set([u'Lorg/json/JSONArray;->getJSONObject(I)Lorg/json/JSONObject;', u'Landroid/webkit/WebSettings;->setDomStorageEnabled(Z)V', u'Landroid/hardware/Camera;->setPreviewCallbackWithBuffer(Landroid/hardware/Camera$PreviewCallback;)V', u'Landroid/webkit/WebView;->loadDataWithBaseURL(Ljava/lang/String; Ljava/lang/String; Ljava/lang/String; Ljava/lang/String; Ljava/lang/String;)V', u'Landroid/app/Activity;->addContentView(Landroid/view/View; Landroid/view/ViewGroup$LayoutParams;)V', u'Landroid/media/MediaPlayer;->setAudioStreamType(I)V', u'Landroid/media/MediaPlayer;->getCurrentPosition()I', u'Ljava/util/Arrays;->sort([I)V', u'Landroid/media/MediaPlayer;->setOnPreparedListener(Landroid/media/MediaPlayer$OnPreparedListener;)V', u'Landroid/webkit/WebSettings;->setUserAgentString(Ljava/lang/String;)V', u'Ljava/math/BigInteger;->valueOf(J)Ljava/math/BigInteger;', u'Landroid/widget/FrameLayout;->requestLayout()V', u'Landroid/view/View;->getWindowVisibleDisplayFrame(Landroid/graphics/Rect;)V', u'L"
p57
sg5
S'CHANGED (JI 30.75%)'
p58
sg7
F30.75
sa(dp59
g3
S'\nDELETED set([u\'\\x00\', u\'basic_info\', u\'SUPPRESS_SSO\', u\'failWrite: Got exception:\', u\'Intent with no response code, assuming OK (known issue)\', u\'\\u516c\\u53f8.hk\', u\'pvt.ge\', u\' index requested: \', u\'Querying SKU details.\', u\'in-addr.arpa\', u\'botanicalgarden.museum\', u\'union.aero\', u\' in read-only mode\', u\'ACTION_PREVIOUS_HTML_ELEMENT\', u\'biz.ki\', u\'android.support.PARENT_ACTIVITY\', u\'wallonie.museum\', u\'xn--sandy-yua.no\', u\'medical.museum\', u"Can\'t start async operation (", u\'getReadableDatabase called recursively\', u\'imb.br\', u\'com.cu\', u\' (cycled)\', u\'pro.az\', u\'esp.br\', u\'dgca.aero\', u\'nesoddtangen.no\', u"Can\'t upgrade read-only database from version ", u\'s\\xf8gne.no\', u\'\\r\\n\', u\'pd.it\', u\'error\', u\'here\', u\'&#\', u\'s\\xf8rfold.no\', u\'naumburg.museum\', u\'association.aero\', u\'sula.no\', u\'nom.fr\', u\'get cache\', u\'dialog/\', u\'com.facebook.TokenCachingStrategy.IsSSO\', u\'MATCHED\', u\'pref.aomori.jp\', u\'Failed to setLocale() when constructing, closing the database\', u\'content://com.facebook.katana.\n---\nADDED set([u\'disableNativeScroll\', u\'isLoadAdTaskSuccessful() called when isLoadAdTaskDone() is false.\', u\'Unable to ping the URL: \', u\'.obb\', u\'Cannot show interstitial because it is not loaded and ready.\', u\'/video\', u\'onAdClicked()\', u\'@gw_adnetrefresh@\', u\'No "action" parameter in a video gmsg.\', u\'Assertion failed.\', u\'NeatPlug-Admob-Ad \', u\'android.permission.VIBRATE not available?\', u\'bin/Data/settings.xml\', u\'GoogleAdMobDoritosLife\', u\'EGL_COVERAGE_BUFFERS_NV\', u\'afma_notify_dt\', u\'QBBbw12WEDKBTUdUX9p1RUsvQSFYYhRhfFe00MGUfms=\', u\'min_hwa_overlay\', u\'tx\', u\'ty\', u\'bad_ad_report_path\', u\'interstitial_mb\', u\'\\n\\nActual\\nm32bit: \', u\'mraid_interstitial_path\', u\'mad_hac\', u\'X-Afma-Interstitial-Timeout\', u\'drt_include\', u\') ad to show interstitial: \', u\'Disabling hardware acceleration on collapsing MRAID WebView.\', u\'/cache\', u\'/lib\', u\'Received log message: <"string": "\', u\'dex\', u"{\'event\': \'canplaythrough\', \'duration\': \'", u\'NO_FILL\', u\'Response message is null or zero length: \', u\'arme'
p60
sg5
S'CHANGED (JI 1.92%)'
p61
sg7
F1.9199999999999999
sa(dp62
g3
S"\nDELETED set(['Lcom/facebook/widget/GraphObjectPagingLoader;->nextRequest Lcom/facebook/Request; [access_flags=private]\\n', 'Lcom/sonicmoov/nativejs/module/app/NJApp;->totalMemory J [access_flags=0x0]\\n', 'Lcom/sonicmoov/net/http/loader/HttpLoaderManager$LoadingThread$1;->this$1 Lcom/sonicmoov/net/http/loader/HttpLoaderManager$LoadingThread; [access_flags=synthetic final]\\n', 'Lcom/google/common/collect/Iterators$14;->val$enumeration Ljava/util/Enumeration; [access_flags=synthetic final]\\n', 'Lcom/facebook/widget/UserSettingsFragment;->userProfilePicID Ljava/lang/String; [access_flags=private]\\n', 'Landroid/support/v4/app/Fragment;->mContainer Landroid/view/ViewGroup; [access_flags=0x0]\\n', 'Lcom/google/common/collect/Iterables$11;->val$numberToSkip I [access_flags=synthetic final]\\n', 'Lcom/facebook/Request;->parameters Landroid/os/Bundle; [access_flags=private]\\n', 'Lcom/facebook/widget/UrlRedirectCache;->REDIRECT_CONTENT_TAG Ljava/lang/String; [access_flags=private static final]\\n', 'Lcom/go\n---\nADDED set(['Lcom/google/ads/internal/g;->l Z [access_flags=private]\\n', 'Lcom/google/ads/al;->a Ljava/lang/String; [access_flags=private]\\n', 'Lcom/unity3d/player/UnityPlayer;->p Landroid/os/PowerManager$WakeLock; [access_flags=private]\\n', 'Lcom/google/ads/internal/g;->a Ljava/util/LinkedList; [access_flags=private final]\\n', 'Lcom/unity3d/player/p;->g Lcom/unity3d/player/g; [access_flags=static final]\\n', 'Lcom/google/ads/e;->c Ljava/lang/Object; [access_flags=private final]\\n', 'Lcom/google/ads/ag;->bA I [access_flags=0x0]\\n', 'Lcom/unity3d/player/y;->n I [access_flags=private]\\n', 'Lcom/google/ads/ag$i;->a Lcom/google/ads/ag; [access_flags=synthetic final]\\n', 'Lcom/google/ads/m;->a Lcom/google/ads/util/i$b; [access_flags=public final]\\n', 'Lcom/google/ads/ag;->bB I [access_flags=0x0]\\n', 'Lcom/unity3d/player/r;->b Landroid/content/Context; [access_flags=private final]\\n', 'Lcom/google/ads/util/g$a$4;->a Landroid/webkit/JsPromptResult; [access_flags=synthetic final]\\n', 'Lcom/google/ads/"
p63
sg5
S'CHANGED (JI 0.0%)'
p64
sg7
F0
sa.