(lp1
(dp2
S'detailed'
p3
S'DIFFERENT: 1!=2'
p4
sS'not_detailed'
p5
S'CHANGED'
p6
sS'score'
p7
I0
sa(dp8
g3
S'EQUAL'
p9
sg5
S'EQUAL'
p10
sg7
I100
sa(dp11
g3
S'DIFFERENT: 4!=9'
p12
sg5
S'CHANGED'
p13
sg7
I0
sa(dp14
g3
S'EQUAL'
p15
sg5
S'EQUAL'
p16
sg7
I100
sa(dp17
g3
S'DIFFERENT: None!=19'
p18
sg5
S'CHANGED'
p19
sg7
I0
sa(dp20
g3
S'DIFFERENT: 4!=19'
p21
sg5
S'CHANGED'
p22
sg7
I0
sa(dp23
g3
S"\nDELETED set(['android.permission.SYSTEM_ALERT_WINDOW', 'android.permission.WRITE_EXTERNAL_STORAGE', 'android.permission.ACCESS_WIFI_STATE'])\n---\nADDED set([])"
p24
sg5
S'CHANGED (JI 50.0%)'
p25
sg7
F50
sa(dp26
g3
S'DIFFERENT: com.anniegame.mountainmoto!=com.underdogsthestudio.bigbusparking'
p27
sg5
S'CHANGED'
p28
sg7
I0
sa(dp29
g3
S'DIFFERENT: Mountain Moto!=Big Bus Parking'
p30
sg5
S'CHANGED'
p31
sg7
I0
sa(dp32
g3
S"\nDELETED set(['com.frame.ProfileActivity', 'com.frame.PopActivity', 'com.millennialmedia.android.VideoPlayer', 'com.frame.Test_rebuild_gameActivity', 'com.papaya.cross.internal.NewPanelActivity', 'com.scoreloop.client.android.core.ui.ProxyActivity', 'com.frame.FrameActivity', 'com.frame.MoreActivity', 'com.frame.LeaderboardActivity', 'com.papaya.cross.internal.FullADActivity', 'com.millennialmedia.android.MMAdViewOverlayActivity', 'com.google.ads.AdActivity'])\n---\nADDED set(['com.prime31.WebViewActivity', 'com.google.android.gms.ads.AdActivity', 'com.flurry.android.FlurryFullscreenTakeoverActivity', 'com.heyzap.sdk.ads.HeyzapInterstitialActivity', 'com.prime31.UnityPlayerNativeActivity', 'com.prime31.P31VideoPlayerActivity', 'com.prime31.EtceteraProxyActivity', 'com.heyzap.sdk.ads.HeyzapVideoActivity'])"
p33
sg5
S'CHANGED (JI 0.0%)'
p34
sg7
F0
sa(dp35
g3
S"\nDELETED set(['res/drawable-hdpi/umeng_xp_ad_action_open_selector.xml', 'res/drawable-hdpi/umeng_xp_gradient_grey1.xml', 'res/anim/umeng_xp_fade_out.xml', 'res/anim/umeng_xp_zoom_in.xml', 'res/drawable-hdpi/umeng_xp_horizontal_divider.xml', 'res/drawable-hdpi/umeng_xp_shape_gradient_blue_v2.xml', 'res/layout/umeng_xp_full_screen_focus.xml', 'res/drawable-hdpi/umeng_xp_detail365.png', 'res/drawable-hdpi/umeng_xp_ad_action_bg.9.png', 'res/drawable-hdpi/umeng_xp_shape_gradient_blue_container.xml', 'res/drawable/location.png', 'res/anim/umeng_xp_slide_out_from_left.xml', 'res/layout/umeng_xp_component_foucused_app.xml', 'res/layout/umeng_xp_container_banner_more.xml', 'res/anim/umeng_xp_progressbar.xml', 'res/drawable-mdpi/icon.png', 'res/drawable-hdpi/umeng_xp_btn_gradient_dark_grey.xml', 'res/drawable/key_left.png', 'res/drawable-hdpi/umeng_xp_normal_banner_background_selector.xml', 'res/drawable-hdpi/umeng_xp_cancel.png', 'res/drawable-hdpi/umeng_xp_shape_gradient_grey_1.xml', 'res/layout/pop.xm\n---\nADDED set(['res/drawable-xxhdpi/common_signin_btn_text_disabled_focus_light.9.png', 'res/drawable-xhdpi/common_signin_btn_icon_focus_dark.9.png', 'res/drawable-hdpi/common_signin_btn_text_disabled_light.9.png', 'res/drawable-hdpi/common_signin_btn_icon_focus_light.9.png', 'res/drawable/common_signin_btn_icon_light.xml', 'res/drawable-ldpi/app_icon.png', 'assets/bin/Data/sharedassets7.assets', 'res/drawable-xxhdpi/common_signin_btn_text_pressed_light.9.png', 'res/drawable-xhdpi/common_signin_btn_icon_focus_light.9.png', 'res/drawable-xhdpi/common_signin_btn_text_focus_dark.9.png', 'assets/bin/Data/level28', 'assets/bin/Data/level29', 'assets/bin/Data/level22', 'assets/bin/Data/level23', 'assets/bin/Data/level20', 'assets/bin/Data/level21', 'assets/bin/Data/level26', 'assets/bin/Data/level27', 'assets/bin/Data/level24', 'res/drawable-xhdpi/common_signin_btn_text_normal_dark.9.png', 'res/drawable-xhdpi/common_signin_btn_text_normal_light.9.png', 'assets/bin/Data/sharedassets8.assets', 'res/colo"
p36
sg5
S'CHANGED (JI 1.02%)'
p37
sg7
F1.02
sa(dp38
g3
S"\nDELETED set(['com.frame.common.net.DownloadingService'])\n---\nADDED set([])"
p39
sg5
S'CHANGED (JI 0.0%)'
p40
sg7
F0
sa(dp41
g3
S"\nDELETED set([])\n---\nADDED set(['com.heyzap.sdk.ads.PackageAddedReceiver', 'com.prime31.AlarmManagerReceiver'])"
p42
sg5
S'CHANGED (JI 0.0%)'
p43
sg7
F0
sa(dp44
g3
S"\nDELETED set([u'Lcom/nexage/android/NexageAdManager;', u'Lcom/scoreloop/client/android/core/util/Formats;', u'Lcom/millennialmedia/android/MMAdViewWebOverlay$6;', u'Lcom/papaya/cross/internal/FullADActivity$1;', u'Lcom/umeng/common/net/a$a;', u'Ljava/lang/Process;', u'Lcom/millennialmedia/android/BasicCachedAd;', u'Lcom/millennialmedia/android/HandShake;', u'Lcom/scoreloop/client/android/core/persistence/DbAchievementsStore$a;', u'Lcom/papaya/cross/promotion/BannerAdView$a;', u'[Lcom/scoreloop/client/android/core/model/User$b;', u'Lcom/umeng/common/net/g;', u'Lcom/umeng/common/b/d;', u'Lcom/scoreloop/client/android/core/controller/GameController$a;', u'Lcom/scoreloop/client/android/core/model/SharedDeviceUuidStore;', u'[Lcom/scoreloop/client/android/core/util/SetterIntent$KeyMode;', u'Lcom/umeng/xp/view/ac;', u'Lcom/papaya/cross/b/a;', u'Lcom/scoreloop/client/android/core/controller/GameController;', u'Lcom/umeng/common/net/f$b;', u'Lcom/umeng/xp/view/N;', u'Lcom/scoreloop/client/android/core/a\n---\nADDED set([u'Lcom/heyzap/sdk/ads/HeyzapAds$1;', u'Lcom/heyzap/sdk/extensions/ads/UnityHelper;', u'Lcom/google/android/gms/wallet/h;', u'Lcom/google/android/gms/internal/gn$a;', u'Lcom/prime31/AdMobPlugin$1;', u'Lcom/flurry/sdk/ny;', u'Lcom/google/android/gms/internal/dg$1$2;', u'Lcom/flurry/sdk/gp$o;', u'Lcom/google/android/gms/maps/internal/h$a;', u'Lcom/flurry/sdk/bo;', u'Lcom/google/android/gms/internal/fl$m;', u'Lcom/google/android/gms/maps/model/LatLngBounds;', u'Lcom/google/android/gms/drive/query/internal/c;', u'Lcom/prime31/EtceteraPlugin$23;', u'Lcom/flurry/sdk/qj;', u'Lcom/google/android/gms/auth/GoogleAuthUtil;', u'Lcom/flurry/sdk/bp$c;', u'Lcom/flurry/sdk/lt$h;', u'Lcom/flurry/sdk/ly$a;', u'Lcom/google/android/gms/maps/internal/o;', u'Lcom/google/android/gms/plus/PlusOneButtonWithPopup;', u'Lcom/flurry/sdk/fo;', u'Lcom/google/android/gms/drive/metadata/internal/a;', u'Ljava/util/concurrent/BlockingQueue;', u'Lcom/unity3d/player/k;', u'Lcom/flurry/sdk/ft$1;', u'Lcom/google/android"
p45
sg5
S'CHANGED (JI 5.89%)'
p46
sg7
F5.8899999999999997
sa(dp47
g3
S"\nDELETED set([u'Lcom/google/ads/AdView;->stopLoading()V', u'Lcom/scoreloop/client/android/core/model/Challenge;->getContenderScore()Lcom/scoreloop/client/android/core/model/Score;', u'Lcom/google/ads/d;-><init>(Landroid/app/Activity; Lcom/google/ads/Ad; Lcom/google/ads/AdSize; Ljava/lang/String; Z)V', u'Lcom/scoreloop/client/android/core/controller/ScoreController;->b(Lcom/scoreloop/client/android/core/controller/ScoreController;)Lcom/scoreloop/client/android/core/persistence/LocalScoreStore;', u'Lcom/scoreloop/client/android/core/persistence/DbAchievementsStore$a;->onCreate(Landroid/database/sqlite/SQLiteDatabase;)V', u'Lcom/millennialmedia/android/MillennialMediaView$1;-><init>(Lcom/millennialmedia/android/MillennialMediaView;)V', u'Lcom/scoreloop/client/android/core/addon/RSSFeed;->a(Lcom/scoreloop/client/android/core/addon/RSSFeed; Lcom/scoreloop/client/android/core/addon/RSSItem;)V', u'Lcom/millennialmedia/android/MillennialMediaView;->stopPlayback()V', u'Lcom/scoreloop/client/android/core\n---\nADDED set([u'Lcom/flurry/sdk/lq;->b(Lcom/flurry/sdk/ht; Lcom/flurry/sdk/ja;)Ljava/lang/Enum;', u'Lcom/prime31/AdMobPluginBase;->instance()Lcom/prime31/AdMobPlugin;', u'Lcom/google/android/gms/maps/internal/c;->eA()Lcom/google/android/gms/maps/model/internal/a;', u'Lcom/google/android/gms/internal/co$a;-><init>()V', u'Lcom/google/android/gms/maps/internal/n$a$a;-><init>(Landroid/os/IBinder;)V', u'Lcom/google/android/gms/internal/bm;-><init>(Lcom/google/android/gms/internal/q; Lcom/google/android/gms/internal/bn; Lcom/google/android/gms/internal/bq; Lcom/google/android/gms/internal/cw; I Lcom/google/android/gms/internal/cu;)V', u'Lcom/flurry/sdk/iz;->a(Lcom/flurry/sdk/ng;)Lcom/flurry/sdk/iz;', u'Lcom/heyzap/http/BaseJsonHttpResponseHandler$2;->run()V', u'Lcom/heyzap/sdk/ads/FullscreenVideoView;->hideControls()V', u'Lcom/heyzap/http/JsonStreamerEntity;->addPart(Ljava/lang/String; Ljava/io/InputStream; Ljava/lang/String; Ljava/lang/String;)V', u'Lcom/google/android/gms/drive/internal/OnDownloadP"
p48
sg5
S'CHANGED (JI 0.07%)'
p49
sg7
F0.070000000000000007
sa(dp50
g3
S"\nDELETED set([u'Lcom/google/ads/AdView;->stopLoading()V', u'Lcom/millennialmedia/android/MMInterstitial;-><init>()V', u'Lcom/millennialmedia/android/MMAdView;-><init>(Landroid/app/Activity; Ljava/lang/String; Ljava/lang/String; I)V', u'Lcom/millennialmedia/android/MMAdView;-><init>(Landroid/app/Activity; Ljava/lang/String; Ljava/lang/String; I Z Z)V', u'Lcom/millennialmedia/android/MMAdView;->startConversionTrackerWithGoalId(Ljava/lang/String;)V', u'Lcom/millennialmedia/android/MMAdView;->onTouchEvent(Landroid/view/MotionEvent;)Z', u'Lcom/google/ads/AdRequest;->isTestDevice(Landroid/content/Context;)Z', u'Lcom/millennialmedia/android/MMAdView;-><init>(Landroid/app/Activity; Ljava/lang/String; Ljava/lang/String; I Ljava/util/Hashtable;)V', u'Lcom/google/ads/AdView;->destroy()V', u'Lcom/google/ads/AdView;->a(Landroid/content/Context; Lcom/google/ads/AdSize; Landroid/util/AttributeSet;)Z', u'Lcom/millennialmedia/android/MMAdView;-><init>(Landroid/app/Activity; Ljava/lang/String; Ljava/lang/String;\n---\nADDED set([u'Lcom/google/ads/AdSize;->getWidthInPixels(Landroid/content/Context;)I', u'Lcom/google/ads/AdSize;->hashCode()I', u'Lcom/google/ads/AdSize;->findBestSize([Lcom/google/ads/AdSize;)Lcom/google/ads/AdSize;', u'Lcom/google/ads/AdSize;-><init>(Lcom/google/android/gms/ads/AdSize;)V', u'Lcom/google/ads/AdSize;->isFullWidth()Z', u'Lcom/google/ads/AdSize;->isSizeAppropriate(I I)Z', u'Lcom/google/ads/AdSize;->getHeightInPixels(Landroid/content/Context;)I', u'Lcom/google/ads/AdSize;->equals(Ljava/lang/Object;)Z', u'Lcom/google/ads/AdSize;->isAutoHeight()Z'])"
p51
sg5
S'CHANGED (JI 16.13%)'
p52
sg7
F16.129999999999999
sa(dp53
g3
S"\nDELETED set([u'Lcom/umeng/common/b/e;-><init>()V', u'Lcom/google/ads/AdView;->stopLoading()V', u'Lcom/scoreloop/client/android/core/model/Challenge;->getContenderScore()Lcom/scoreloop/client/android/core/model/Score;', u'Lcom/google/ads/d;-><init>(Landroid/app/Activity; Lcom/google/ads/Ad; Lcom/google/ads/AdSize; Ljava/lang/String; Z)V', u'Lcom/scoreloop/client/android/core/controller/ScoreController;->b(Lcom/scoreloop/client/android/core/controller/ScoreController;)Lcom/scoreloop/client/android/core/persistence/LocalScoreStore;', u'Lcom/umeng/xp/net/XpReportClient;->send(Lcom/umeng/common/net/g;)Lcom/umeng/common/net/h$a;', u'Lcom/scoreloop/client/android/core/persistence/DbAchievementsStore$a;->onCreate(Landroid/database/sqlite/SQLiteDatabase;)V', u'Lcom/millennialmedia/android/MillennialMediaView$1;-><init>(Lcom/millennialmedia/android/MillennialMediaView;)V', u'Lcom/scoreloop/client/android/core/addon/RSSFeed;->a(Lcom/scoreloop/client/android/core/addon/RSSFeed; Lcom/scoreloop/client/andro\n---\nADDED set([u'Lcom/flurry/sdk/lq;->b(Lcom/flurry/sdk/ht; Lcom/flurry/sdk/ja;)Ljava/lang/Enum;', u'Lcom/google/android/gms/games/b;->getApplicationId()Ljava/lang/String;', u'Lcom/google/android/gms/internal/bm;-><init>(Lcom/google/android/gms/internal/q; Lcom/google/android/gms/internal/bn; Lcom/google/android/gms/internal/bq; Lcom/google/android/gms/internal/cw; I Lcom/google/android/gms/internal/cu;)V', u'Lcom/heyzap/http/BaseJsonHttpResponseHandler$2;->run()V', u'Landroid/app/Fragment;->onLowMemory()V', u'Lcom/heyzap/http/JsonStreamerEntity;->addPart(Ljava/lang/String; Ljava/io/InputStream; Ljava/lang/String; Ljava/lang/String;)V', u'Lcom/flurry/android/impl/ads/avro/protocol/v6/TestAds;->b()Lcom/flurry/android/impl/ads/avro/protocol/v6/TestAds$Builder;', u'Lcom/google/android/gms/drive/widget/DataBufferAdapter;->getView(I Landroid/view/View; Landroid/view/ViewGroup;)Landroid/view/View;', u'Lcom/google/android/gms/internal/ia$2;->a(Lcom/google/android/gms/common/api/Api$a;)V', u'Lcom/flurry"
p54
sg5
S'CHANGED (JI 3.65%)'
p55
sg7
F3.6499999999999999
sa(dp56
g3
S"\nDELETED set([u'Landroid/widget/EditText;->requestFocus()Z', u'Lcom/google/ads/AdView;->stopLoading()V', u'Lorg/apache/http/client/methods/HttpPost;-><init>(Ljava/net/URI;)V', u'Landroid/content/ContentValues;->put(Ljava/lang/String; Ljava/lang/Float;)V', u'Ljava/lang/SecurityException;->printStackTrace()V', u'Landroid/widget/Button;->setTextColor(I)V', u'Landroid/location/Location;->getSpeed()F', u'Ljava/util/Date;->toString()Ljava/lang/String;', u'Lorg/apache/http/client/methods/HttpGet;-><init>(Ljava/net/URI;)V', u'Lorg/json/JSONObject;->names()Lorg/json/JSONArray;', u'Lcom/google/ads/AdView;->a(Landroid/app/Activity; Lcom/google/ads/AdSize; Ljava/lang/String;)V', u'Ljava/util/regex/Matcher;->end()I', u'Lcom/millennialmedia/android/MMAdView;-><init>(Landroid/app/Activity; Ljava/lang/String; Ljava/lang/String; Z Ljava/util/Hashtable;)V', u'Landroid/database/sqlite/SQLiteOpenHelper;->close()V', u'Landroid/os/Message;->obtain(Landroid/os/Handler; I I I)Landroid/os/Message;', u'Landroid/webkit/W\n---\nADDED set([u'Ljava/util/List;->indexOf(Ljava/lang/Object;)I', u'Landroid/content/Intent;->putExtra(Ljava/lang/String; Ljava/io/Serializable;)Landroid/content/Intent;', u'Landroid/widget/FrameLayout;->onTouchEvent(Landroid/view/MotionEvent;)Z', u'Landroid/view/View;->post(Ljava/lang/Runnable;)Z', u'Ljava/lang/Float;->isNaN(F)Z', u'Landroid/webkit/WebSettings;->setDomStorageEnabled(Z)V', u'Landroid/app/PendingIntent;->equals(Ljava/lang/Object;)Z', u'Ljava/lang/InterruptedException;->toString()Ljava/lang/String;', u'Landroid/os/Looper;->myLooper()Landroid/os/Looper;', u'Landroid/content/ComponentName;->getPackageName()Ljava/lang/String;', u'Lcom/millennialmedia/android/MMInterstitial;->fetch()V', u'Ljava/util/Map;->containsValue(Ljava/lang/Object;)Z', u'Landroid/webkit/WebSettings;->setGeolocationEnabled(Z)V', u'Landroid/graphics/BitmapFactory;->decodeFile(Ljava/lang/String; Landroid/graphics/BitmapFactory$Options;)Landroid/graphics/Bitmap;', u'Landroid/graphics/drawable/Drawable;->setBounds(La"
p57
sg5
S'CHANGED (JI 41.33%)'
p58
sg7
F41.329999999999998
sa(dp59
g3
S'\nDELETED set([u\':\\tFailed to send message. StatusCode = \', u\'Score mode does not match challenge mode\', u\'Cannot show interstitial because it is not loaded and ready.\', u\'umeng_xp_landscape_background\', u\'Request data from second-cache..\', u\'#new_games\', u\'saveAPK getContentLength \', u\'ZestADZ failure\', u\'The game paramter must not be null\', u\'GoogleAdMobDoritosLife\', u\'/images/xpromt/images/slogan.png\', u\'cannot access game modes without a game\', u\'cache dir in external storage\', u\'get update info failed\', u\'V1.21\', u\'publisherID\', u\'run(): publish() failed\\n\', u\'umeng_xp_action_open\', u\'start activity error\', u\'cacheComplete\', u\'internal error: no _user set\', u\'http://mob.adwhirl.com/getInfo.php?appid=%s&appver=%d&client=2\', u\'finished before interrrupt content = \', u\'Advertisement is trying to use vibrator but permissions are missing.\', u\'umeng_xp_icon_open\', u\'4.5.0-11.10.11.a\', u"{\'event\': \'canplaythrough\', \'duration\': \'", u\'unexpected null context in invokehander flag=0\', u"Can\'t get the \n---\nADDED set([u\'Required server option missing: \', u\'Failed to get the current AdSize.\', u\'lineNumber\', u\'[anySetter]\', u"Internal error. Block wasn\'t deleted with id = ", u\' into a char element of char array\', u\'SignInButton\', u\'Replacing param eso with: \', u\'TRACK_SOCIAL\', u\' following declaration within the <application> element: \', u\'MatchNumber\', u\'interstitial: onReceiveAd\', u\'aliases\', u\'invalid video width(\', u\'onDestroyView not allowed on MapViewDelegate\', u\' in field \', u\'URL missing from click GMSG.\', u\'Invalid mode provided.\', u\'com.google.android.gms.appstate.internal.IAppStateCallbacks\', u\'heyzap-start\', u\'flashVersion\', u\'Tracking already started, setAppName call ignored\', u\'Not running Unity from an Activity; ignored...\', u\'Host\', u\'html_data\', u\'No space left on device\', u\'banner ad holder layout params = \', u\'Sending text message: %s to: %s\', u\'No server options fields detected. To suppress this message either add a field with the @Parameter annotation, or override the load() '
p60
sg5
S'CHANGED (JI 5.11%)'
p61
sg7
F5.1100000000000003
sa(dp62
g3
S"\nDELETED set(['Lcom/papaya/cross/utils/b$1;->be Lcom/papaya/cross/utils/b; [access_flags=synthetic final]\\n', 'Lcom/papaya/cross/b/d;->bP Lcom/papaya/cross/utils/d; [access_flags=private]\\n', 'Lcom/scoreloop/client/android/core/model/User$Gender;->UNKNOWN Lcom/scoreloop/client/android/core/model/User$Gender; [access_flags=public static enum final]\\n', 'Lcom/scoreloop/client/android/core/model/User$b;->a [Lcom/scoreloop/client/android/core/model/User$b; [access_flags=private synthetic static final]\\n', 'Lcom/papaya/cross/b/c$1;->bK Ljava/lang/String; [access_flags=private synthetic]\\n', 'Lcom/scoreloop/client/android/core/controller/AchievementsController;->f Lcom/scoreloop/client/android/core/model/AwardList; [access_flags=private]\\n', 'Lcom/scoreloop/client/android/core/server/Request$State;->COMPLETED Lcom/scoreloop/client/android/core/server/Request$State; [access_flags=public static enum final]\\n', 'Lcom/adwhirl/obj/Extra;->cycleTime I [access_flags=public]\\n', 'Lcom/scoreloop/client/androi\n---\nADDED set(['Lcom/prime31/EtceteraPlugin$4;->val$negativeButton Ljava/lang/String; [access_flags=private synthetic final]\\n', 'Lcom/google/android/gms/internal/ib;->Fd Lcom/google/android/gms/internal/ib; [access_flags=private]\\n', 'Lcom/heyzap/sdk/ads/Manager;->lastClickedTime J [access_flags=public]\\n', 'Lcom/flurry/sdk/rn;->c J [access_flags=final]\\n', 'Lcom/google/android/gms/plus/model/moments/ItemScope$Builder;->EB Ljava/util/List; [access_flags=private]\\n', 'Lcom/google/android/gms/drive/query/internal/FieldOnlyFilter;->kg I [access_flags=final]\\n', 'Lcom/google/android/gms/internal/hz$3;->Eh Lcom/google/android/gms/plus/model/moments/Moment; [access_flags=synthetic final]\\n', 'Lcom/google/android/gms/internal/fh;->rI Lcom/google/android/gms/drive/metadata/MetadataField; [access_flags=public static final]\\n', 'Lcom/google/android/gms/plus/model/moments/ItemScope$Builder;->Er Lcom/google/android/gms/internal/ib; [access_flags=private]\\n', 'Lcom/flurry/sdk/qd;->b Ljava/lang/Class; [acces"
p63
sg5
S'CHANGED (JI 0.13%)'
p64
sg7
F0.13
sa.