(lp1
(dp2
S'detailed'
p3
S'DIFFERENT: 28!=12'
p4
sS'not_detailed'
p5
S'CHANGED'
p6
sS'score'
p7
I0
sa(dp8
g3
S'DIFFERENT: 2.5.4!=2.1.5'
p9
sg5
S'CHANGED'
p10
sg7
I0
sa(dp11
g3
S'DIFFERENT: 4!=7'
p12
sg5
S'CHANGED'
p13
sg7
I0
sa(dp14
g3
S'EQUAL'
p15
sg5
S'EQUAL'
p16
sg7
I100
sa(dp17
g3
S'DIFFERENT: 8!=16'
p18
sg5
S'CHANGED'
p19
sg7
I0
sa(dp20
g3
S'DIFFERENT: 8!=16'
p21
sg5
S'CHANGED'
p22
sg7
I0
sa(dp23
g3
S"\nDELETED set(['android.permission.ACCESS_FINE_LOCATION', 'android.permission.BIND_WALLPAPER', 'com.android.launcher.permission.INSTALL_SHORTCUT', 'android.permission.ACCESS_COARSE_LOCATION', 'android.permission.SET_WALLPAPER', 'android.permission.CAMERA', 'android.permission.READ_PHONE_STATE'])\n---\nADDED set(['android.permission.VIBRATE', 'com.android.browser.permission.WRITE_HISTORY_BOOKMARKS', 'android.permission.SYSTEM_OVERLAY_WINDOW', 'android.permission.SYSTEM_ALERT_WINDOW', 'android.permission.WAKE_LOCK', 'com.android.browser.permission.READ_HISTORY_BOOKMARKS', 'android.permission.ACCESS_DOWNLOAD_MANAGER'])"
p24
sg5
S'CHANGED (JI 26.32%)'
p25
sg7
F26.32
sa(dp26
g3
S'DIFFERENT: com.picsart.studio!=cn.cf.shop_ele1.taoxiaosan'
p27
sg5
S'CHANGED'
p28
sg7
I0
sa(dp29
g3
S'DIFFERENT: PicsArt!=\xe6\x88\xb7\xe5\xa4\x96\xe8\xa3\x85\xe5\xa4\x87'
p30
sg5
S'CHANGED'
p31
sg7
I0
sa(dp32
g3
S"\nDELETED set(['com.socialin.android.activity.FolderChooserActivity', 'com.picsart.effects.blemish_fix.BlemishFixActivity', 'com.socialin.android.activity.InfoDialogActivity', 'com.socialin.android.photo.tools.ResizeDialogActivity', 'com.socialin.android.photo.callout.SelectCalloutActivity', 'com.socialin.picsin.camera.CameraMainActivity', 'com.socialin.android.gallery.activity.MyNetworkActivity', 'com.socialin.android.photo.picsinphoto.FirstActivity', 'com.socialin.android.photo.main.DateAndTimeListActivity', 'com.socialin.android.photo.collage.SelectCollageBgActivity', 'com.socialin.android.photo.collage.CollagePreviewActivity', 'com.socialin.android.photo.dialog.FacebookRandomFriendsDialogActivity', 'com.paypal.android.MEP.PayPalActivity', 'com.socialin.android.api.activity.ConnectionsActivity', 'com.socialin.android.twitter.TwitterOAuthActivity', 'com.socialin.android.photo.draw.KaleidoscopeActivity', 'com.socialin.android.ui.share.SaveExportPostPicsinDialogActivity', 'com.socialin.android.f\n---\nADDED set(['cn.cf.shop_ele.ui.activities.WeaveBookmarksListActivity', 'cn.cf.shop_ele.ui.activities.BookmarksListActivity', 'com.cloudfox.project.gamecenter.RegisterActivity', 'cn.cf.shop_ele.ui.activities.EditBookmarkActivity', 'cn.cf.shop_ele.ui.activities.preferences.UserAgentPreferenceActivity', 'cn.cf.shop_ele.ui.activities.preferences.HomepagePreferenceActivity', 'cn.cf.shop_ele.games.GameListActivity', 'cn.cf.shop_ele.ui.activities.ElectricFrontPageActivity', 'cn.cf.shop_ele.ui.activities.MainActivity', 'cn.cf.shop_ele.ui.activities.preferences.WeavePreferencesActivity', 'cn.cf.shop_ele.ui.activities.HistoryListActivity', 'com.cloudfox.project.gamecenter.LoginActivity', 'cn.cf.shop_ele.ui.activities.WebsiteActivity', 'com.cloudfox.project.gamecenter.PersonalInfoEditActivity', 'cn.cf.shop_ele.ui.activities.BookmarksHistoryActivity', 'cn.cf.shop_ele.ui.activities.preferences.PreferencesActivity', 'cn.cf.shop_ele.ui.activities.MobileViewListActivity', 'cn.cf.shop_ele.ui.activities.Electr"
p33
sg5
S'CHANGED (JI 0.0%)'
p34
sg7
F0
sa(dp35
g3
S"\nDELETED set(['assets/masks/artistic/i_mask_artistic_10.jpg', 'res/drawable/icon_small_picsin.png', 'res/drawable/google_tag_item_background.xml', 'res/drawable/panel_button_long_pressed.png', 'res/drawable/list_top.png', 'res/layout/action_item.xml', 'res/drawable/xml_tabs_select.xml', 'res/drawable/ic_sticker_32.jpg', 'res/layout/si_ui_gallery_item_view_slider_content.xml', 'assets/masks/border/i_mask_border_4.jpg', 'res/drawable/xml_button_drag.xml', 'res/drawable/filled_box.xml', 'res/layout/save_export_send_post_layout.xml', 'res/drawable/mark_p.png', 'res/anim/free_crop_brush_panel_close.xml', 'res/drawable/social_connect_button_normal.png', 'res/drawable/search_button_pressed.png', 'res/layout/picasa_adapter_item.xml', 'res/drawable-nodpi/widget_photo_button_bg.xml', 'res/anim/shrink_from_top.xml', 'assets/masks/lights/i_mask_lights_6.jpg', 'res/drawable/qa_list_item_top_p.png', 'res/anim/pump_bottom.xml', 'res/layout/si_ui_gallery_public_items_layout.xml', 'res/drawable/tab_active.png',\n---\nADDED set(['res/drawable/browser_blue.png', 'res/drawable/browser_spinner_black_20_2.png', 'res/drawable/browser_spinner_black_20_6.png', 'res/drawable-hdpi/browser_ic_btn_forward_pressed.png', 'res/anim/browser_gd_grow_from_topleft_to_bottomright.xml', 'res/drawable/browser_download_install_xml.xml', 'res/drawable/browser_gamerefresh_selector2.xml', 'res/raw/browser_start_history.html', 'res/drawable/browser_spinner_black_20_4.png', 'res/drawable-hdpi/browser_person_ok_norm.png', 'res/drawable-hdpi/browser_bg_fox.png', 'res/drawable/browser_mediaplayer_sound_line.bmp', 'res/drawable-hdpi/browser_gd_quick_action_top_frame.9.png', 'cn/cf/shop_ele/wml/parser/simple.xml', 'res/drawable-hdpi/easygame_infor_background_press.png', 'res/drawable/browser_menu_btn.xml', 'res/drawable/browser_layer_top_bg_nor.png', 'res/drawable-hdpi/browser_btn_goleft_pressed.png', 'res/drawable-hdpi/browser_tb_src_logobar_somedays.png', 'res/layout-960x540/browser_ic_game.xml', 'res/drawable-hdpi/browser_ic_btn_nofo"
p36
sg5
S'CHANGED (JI 0.4%)'
p37
sg7
F0.40000000000000002
sa(dp38
g3
S"\nDELETED set(['com.socialin.android.wall.photo.ColorLinesWallpaper', 'com.socialin.android.net.FileDownloadService', 'com.socialin.android.photo.PicsartService'])\n---\nADDED set(['cn.cf.shop_ele.games.ClearCacheService', 'cn.cf.shop_ele.download.DownloadService'])"
p39
sg5
S'CHANGED (JI 0.0%)'
p40
sg7
F0
sa(dp41
g3
S"\nDELETED set(['com.socialin.android.analytics.InstallReferrerReceiver', 'com.socialin.android.widget.picsin.PicsinAppWidgetProvider'])\n---\nADDED set(['cn.cf.shop_ele.utils.ProxyChangeReceiver'])"
p42
sg5
S'CHANGED (JI 0.0%)'
p43
sg7
F0
sa(dp44
g3
S"\nDELETED set([u'Landroid/support/v4/widget/SearchViewCompatHoneycomb$1;', u'Lmyobfuscated/bb/a;', u'Lcom/picsart/studio/R$xml;', u'Lmyobfuscated/m/ay;', u'Lmyobfuscated/v/bp;', u'Lcom/google/api/client/xml/atom/AtomContent;', u'Lcom/socialin/android/ui/share/c;', u'Lmyobfuscated/l/bt;', u'Lcom/socialin/android/photo/draw/f;', u'Lmyobfuscated/s/l;', u'Lcom/google/android/maps/MapController;', u'Lcom/socialin/android/photo/bd;', u'Landroid/graphics/drawable/ClipDrawable;', u'Lcom/picsart/effects/eye_replacer/EyeReplaceImageView;', u'Ltwitter4j/internal/http/HttpResponseListener;', u'Lmyobfuscated/l/al;', u'Lmyobfuscated/g/j;', u'Lmyobfuscated/ac/a;', u'Landroid/graphics/drawable/shapes/RectShape;', u'Lmyobfuscated/k/a;', u'Lcom/mobclix/android/sdk/bj;', u'Lcom/socialin/android/api/model/p;', u'Lcom/socialin/android/photo/crop/x;', u'Lcom/mobclix/android/sdk/r;', u'Lcom/aetrion/flickr/photos/geo/GeoInterface;', u'Lcom/aetrion/flickr/contacts/Contact;', u'[Landroid/support/v4/content/ModernAsyncTas\n---\nADDED set([u'Lcom/caucho/hessian/io/BasicDeserializer;', u'Lcn/cf/shop_ele/ui/activities/preferences/PreferencesActivity$9;', u'Ljava/lang/Process;', u'Lcom/caucho/hessian/io/HessianDebugState$DoubleState;', u'Lcn/cf/shop_ele/ui/activities/MainActivity$43;', u'La/a/a/a/a/l;', u'Lcn/cf/shop_ele/h/a;', u'Lcom/caucho/hessian/io/JavaDeserializer$SqlDateFieldDeserializer;', u'Lcom/caucho/hessian/io/Deserializer;', u'Lorg/xmlpull/v1/XmlPullParserException;', u'Lcn/cf/shop_ele/f/a/b;', u'Lcn/cf/shop_ele/ui/activities/WebsiteActivity$WebsiteAdapter$1;', u'Lcn/cf/shop_ele/utils/c;', u'Lcn/cf/shop_ele/ui/activities/WebsiteActivity$3;', u'Ljava/sql/Date;', u'Lcom/androidquery/auth/AccountHandle;', u'Lcom/caucho/hessian/io/AbstractDeserializer$NullDeserializer;', u'Lorg/ksoap2/serialization/SoapSerializationEnvelope;', u'Lcom/caucho/hessian/io/ClassDeserializer;', u'Lcn/cf/shop_ele/ui/activities/MainActivity$22;', u'Lcn/cf/shop_ele/utils/q;', u'Lcn/cf/shop_ele/f/a/p;', u'Lcn/cf/shop_ele/download/IMusicD"
p45
sg5
S'CHANGED (JI 7.66%)'
p46
sg7
F7.6600000000000001
sa(dp47
g3
S"\nDELETED set([u'Lcom/google/ads/AdView;->stopLoading()V', u'Landroid/support/v4/app/ListFragment;->setListShown(Z)V', u'Lcom/socialin/android/photo/view/MainView;->e(I)V', u'Lmyobfuscated/s/s;->b(I)V', u'Lmyobfuscated/a/o;->a(I)V', u'Lmyobfuscated/g/g;->a()Lmyobfuscated/g/q;', u'Lcom/picsart/studio/R$xml;-><init>()V', u'Lmyobfuscated/l/bg;->d()Z', u'Lcom/aetrion/flickr/reflection/Method;->setNeedsSigning(Z)V', u'Lcom/google/android/apps/analytics/b;->constructPageviewRequestPath(Lcom/google/android/apps/analytics/j; Lcom/google/android/apps/analytics/i;)Ljava/lang/String;', u'Lcom/socialin/android/photo/picsinphoto/a;->compare(Ljava/lang/Object; Ljava/lang/Object;)I', u'Lcom/sonyericsson/zoom/e;-><init>(Landroid/content/Context;)V', u'Lcom/socialin/android/gallery/api/model/Item;->b(Ljava/util/ArrayList;)V', u'Lcom/socialin/android/photo/ao;->onClick(Landroid/view/View;)V', u'Lcom/socialin/android/gallery/activity/GalleryItemEditActivity;->d(Lcom/socialin/android/gallery/activity/GalleryItemEdi\n---\nADDED set([u'La/a/a/a/a/z;->process(Lorg/apache/http/HttpRequest; Lorg/apache/http/protocol/HttpContext;)V', u'Lorg/xmlpull/v1/XmlPullParserFactory;->newInstance()Lorg/xmlpull/v1/XmlPullParserFactory;', u'Lcn/cf/shop_ele/f/a/d;-><init>(Lcn/cf/shop_ele/f/a/b;)V', u'Lcn/cf/shop_ele/ui/activities/MainActivity$29;-><init>(Lcn/cf/shop_ele/ui/activities/MainActivity;)V', u'Lorg/xmlpull/v1/XmlPullParserFactory;->setNamespaceAware(Z)V', u'Lcom/androidquery/callback/AjaxStatus;->getCode()I', u'Lorg/kobjects/isodate/IsoDate;->dateToString(Ljava/util/Date; I)Ljava/lang/String;', u'Lcn/cf/shop_ele/download/DownloadManager;->showError(Ljava/lang/String; Z)Ljava/lang/String;', u'Lcom/caucho/hessian/io/Deserializer;->readList(Lcom/caucho/hessian/io/AbstractHessianInput; I)Ljava/lang/Object;', u'Lcn/cf/shop_ele/download/GameObject;->setDownloadedsize(I)V', u'Lcn/cf/shop_ele/ui/activities/BaseActivity$1;-><init>(Lcn/cf/shop_ele/ui/activities/BaseActivity;)V', u'Lcom/caucho/hessian/io/RemoteDeserializer;-><in"
p48
sg5
S'CHANGED (JI 1.54%)'
p49
sg7
F1.54
sa(dp50
g3
S"\nDELETED set([u'Landroid/support/v4/app/Fragment;->isRemoving()Z', u'Landroid/support/v4/view/PagerAdapter;->setPrimaryItem(Landroid/view/ViewGroup; I Ljava/lang/Object;)V', u'Landroid/support/v4/view/PagerAdapter;->getItemPosition(Ljava/lang/Object;)I', u'Landroid/support/v4/app/BackStackRecord;->commit()I', u'Landroid/support/v4/app/Fragment;->getResources()Landroid/content/res/Resources;', u'Landroid/support/v4/app/Fragment;->getString(I [Ljava/lang/Object;)Ljava/lang/String;', u'Landroid/support/v4/view/PagerAdapter;->notifyDataSetChanged()V', u'Landroid/support/v4/view/ViewPager;->getAdapter()Landroid/support/v4/view/PagerAdapter;', u'Landroid/support/v4/app/FragmentActivity$FragmentTag;-><init>()V', u'Landroid/support/v4/view/PagerAdapter;->unregisterDataSetObserver(Landroid/database/DataSetObserver;)V', u'Landroid/support/v4/app/HCSparseArray;->indexOfValue(Ljava/lang/Object;)I', u'Landroid/support/v4/app/FragmentManagerImpl;->getBackStackEntryAt(I)Landroid/support/v4/app/FragmentManager\n---\nADDED set([u'Lorg/xmlpull/v1/XmlPullParserFactory;->newInstance()Lorg/xmlpull/v1/XmlPullParserFactory;', u'Lorg/xmlpull/v1/XmlPullParser;->getAttributeCount()I', u'Lorg/xmlpull/v1/XmlPullParserFactory;->setNamespaceAware(Z)V', u'Lorg/xmlpull/v1/XmlSerializer;->getPrefix(Ljava/lang/String; Z)Ljava/lang/String;', u'Lorg/xmlpull/v1/XmlPullParser;->getEventType()I', u'Lorg/xmlpull/v1/XmlPullParser;->setInput(Ljava/io/InputStream; Ljava/lang/String;)V', u'Lorg/xmlpull/v1/XmlSerializer;->processingInstruction(Ljava/lang/String;)V', u'Landroid/support/v4/app/Fragment;->performReallyStop(Z)V', u'Lorg/xmlpull/v1/XmlSerializer;->setPrefix(Ljava/lang/String; Ljava/lang/String;)V', u'Lorg/xmlpull/v1/XmlPullParser;->getAttributeValue(I)Ljava/lang/String;', u'Lorg/xmlpull/v1/XmlSerializer;->ignorableWhitespace(Ljava/lang/String;)V', u'Lorg/xmlpull/v1/XmlPullParser;->getAttributeType(I)Ljava/lang/String;', u'Lorg/xmlpull/v1/XmlPullParser;->getColumnNumber()I', u'Lorg/xmlpull/v1/XmlPullParser;->getAttribute"
p51
sg5
S'CHANGED (JI 58.22%)'
p52
sg7
F58.219999999999999
sa(dp53
g3
S"\nDELETED set([u'Lcom/mobclix/android/sdk/bo;->getContext()Landroid/content/Context;', u'Lcom/google/ads/AdView;->stopLoading()V', u'Landroid/support/v4/app/ListFragment;->setListShown(Z)V', u'Landroid/util/SparseArray;->remove(I)V', u'Landroid/view/accessibility/AccessibilityRecord;->setToIndex(I)V', u'Lcom/socialin/android/photo/view/MainView;->e(I)V', u'Lmyobfuscated/s/s;->b(I)V', u'Lmyobfuscated/a/o;->a(I)V', u'Lmyobfuscated/g/g;->a()Lmyobfuscated/g/q;', u'Lcom/picsart/studio/R$xml;-><init>()V', u'Lmyobfuscated/l/bg;->d()Z', u'Lcom/aetrion/flickr/reflection/Method;->setNeedsSigning(Z)V', u'Lcom/google/android/apps/analytics/b;->constructPageviewRequestPath(Lcom/google/android/apps/analytics/j; Lcom/google/android/apps/analytics/i;)Ljava/lang/String;', u'Lcom/socialin/android/photo/picsinphoto/a;->compare(Ljava/lang/Object; Ljava/lang/Object;)I', u'Lcom/sonyericsson/zoom/e;-><init>(Landroid/content/Context;)V', u'Lcom/socialin/android/gallery/api/model/Item;->b(Ljava/util/ArrayList;)V', u'Lco\n---\nADDED set([u'Lcn/cf/shop_ele/ui/activities/EditBookmarkActivity;->getContentResolver()Landroid/content/ContentResolver;', u'Lcn/cf/shop_ele/ui/activities/MainActivity;->f(I)V', u'Lcn/cf/shop_ele/ui/components/CustomWebViewClient;->a(Ljava/lang/String;)V', u'Lcn/cf/shop_ele/ui/activities/AdBlockerWhiteListActivity;->registerForContextMenu(Landroid/view/View;)V', u'Lcom/caucho/hessian/io/RemoteDeserializer;-><init>()V', u'Lcom/caucho/hessian/io/HessianDebugState$MapState1;->println(Ljava/lang/String;)V', u'Lcom/caucho/hessian/io/HessianDebugState$MapState1;->nextObject(I)Lcom/caucho/hessian/io/HessianDebugState$State;', u'Lcn/cf/shop_ele/download/DownloadBaseAdapter;->getViewHolder(I)Lcn/cf/shop_ele/download/DownloadBaseAdapter$ViewHolder;', u'Lcom/caucho/hessian/io/HessianDebugState$ListState1;->shift(Ljava/lang/Object;)Lcom/caucho/hessian/io/HessianDebugState$State;', u'Lorg/ksoap2/transport/ServiceConnectionSE;->getPort()I', u'Lcn/cf/shop_ele/download/DownloadService;->pauseDownloading(I)V'"
p54
sg5
S'CHANGED (JI 5.16%)'
p55
sg7
F5.1600000000000001
sa(dp56
g3
S"\nDELETED set([u'Landroid/widget/TextView;->setTextAppearance(Landroid/content/Context; I)V', u'Landroid/util/SparseArray;->remove(I)V', u'Landroid/view/View;->post(Ljava/lang/Runnable;)Z', u'Ljava/lang/StringBuilder;->replace(I I Ljava/lang/String;)Ljava/lang/StringBuilder;', u'Landroid/content/res/TypedArray;->getDimensionPixelOffset(I I)I', u'Ljava/util/List;->indexOf(Ljava/lang/Object;)I', u'Ljava/util/TreeMap;->clear()V', u'Lorg/apache/http/client/methods/HttpPost;-><init>(Ljava/net/URI;)V', u'Landroid/widget/Button;->setAnimation(Landroid/view/animation/Animation;)V', u'Landroid/app/AlertDialog;->setOnCancelListener(Landroid/content/DialogInterface$OnCancelListener;)V', u'Landroid/support/v4/app/Fragment;->getString(I [Ljava/lang/Object;)Ljava/lang/String;', u'Ljava/util/Map;->putAll(Ljava/util/Map;)V', u'Lorg/apache/http/client/methods/HttpPost;->addHeader(Ljava/lang/String; Ljava/lang/String;)V', u'Landroid/support/v4/view/ViewPager;->getAdapter()Landroid/support/v4/view/PagerAdapter;', \n---\nADDED set([u'Lorg/xml/sax/SAXException;->toString()Ljava/lang/String;', u'Landroid/webkit/WebSettings;->setDomStorageEnabled(Z)V', u'Landroid/webkit/WebChromeClient;->onReceivedIcon(Landroid/webkit/WebView; Landroid/graphics/Bitmap;)V', u'Ljava/text/ParseException;->getMessage()Ljava/lang/String;', u'Landroid/widget/ViewFlipper;->removeAllViews()V', u'Landroid/content/Intent;->getStringArrayListExtra(Ljava/lang/String;)Ljava/util/ArrayList;', u'Lorg/apache/http/client/methods/HttpEntityEnclosingRequestBase;->getParams()Lorg/apache/http/params/HttpParams;', u'Landroid/widget/ImageButton;->setOnTouchListener(Landroid/view/View$OnTouchListener;)V', u'Landroid/view/animation/DecelerateInterpolator;-><init>()V', u'Landroid/widget/RelativeLayout;->onFinishInflate()V', u'Landroid/widget/AdapterView$OnItemSelectedListener;->onNothingSelected(Landroid/widget/AdapterView;)V', u'Landroid/content/SharedPreferences;->registerOnSharedPreferenceChangeListener(Landroid/content/SharedPreferences$OnSharedPref"
p57
sg5
S'CHANGED (JI 45.51%)'
p58
sg7
F45.509999999999998
sa(dp59
g3
S'\nDELETED set([u\'uploadedImageTags\', u\'top_panel\', u\'fbConnect\', u\'ANDROID_creating_pin\', u\'prefix\', u", fromUser=\'", u\'android.permission.INTERNET\', u\'software_env\', u\'Not saved.\', u\'&iota;\', u\'account_name\', u\'GoogleAdMobDoritosLife\', u\'http://playgamesite.com/android/market\', u\'DeviceReferenceToken\', u\'followers_count\', u\'paymentExecStatus\', u\'si_app_user\', u\'PasswordString\', u\'api_key\', u\'xndzor\', u\'DROP TABLE IF EXISTS referrer;\', u\'&type=album\', u\'isfriend\', u\'slideLeft\', u\'paypal_logo_30.png\', u\'horizontal_vertical\', u\'An error occurred while loading a URL in AdWebView:\', u\'max_upload_date\', u\'friendWallPost\', u\'d MMM\', u\'963\', u\'IBM819\', u\'000\', u\'Vignette: \', u\'Cp970\', u\'99999\', u\'userMemboxes\', u\'&#8658;\', u\'date_taken\', u\', appendParameter=\', u\'asymp\', u\'drawing:onCreate\', u\'/Android/data/\', u\'XML name not specified\', u\'</ItemName>\\n\', u", responseAsString=\'", u\'main:collage_choose\', u\'dateTime:exit\', u\'errors\', u\'start:menu_wall\', u\'\\u03c6\', u\'Big5-HKSCS\', u\'NESTED_COMMENT\', u\'clipar\n---\nADDED set([u\'browser_count\', u\'vnd.android.cursor.item/vnd.vee.weave\', u\'yellow\', u\'DateTime\', u\'NYI\', u\'.com/\', u\'imgurl\', u\'MOBILE_PHONE\', u\'ClientType\', u\'electric_frontpage_list\', u\'browser_WeaveBookmarksList\', u\'browser_menu_bookmark\', u\'readResolve\', u\'http://reci-user.17fox.cn/browerstat/login.php?gameid=\', u\'Refresh system preferences\', u\'type=options\', u\'DownloadActivity_DOWNLOADSTATUSKEY\', u\'browser_fullscreen\', u\'insert throws exception:entity is game!  \', u\'multiple=false\', u\'Unexpected EOF\', u\'DISCREET\', u\'reauth needed\', u\'browser_colorGrid\', u\'browser_bg_src_evening\', u\'type=reset\', u\'browser_PreviousBtn\', u\'MBRAC\', u\' line: \', u\'rlButAddAll\', u\'REJEC\', u\'Serialized Class expects name.\', u"\'begin:\' expected", u\'update...mRecommendList:\', u\'browser_webview\', u\'server was null\', u\'creation_date\', u\'miui\', u\'BookmarksProviderWrapper\', u\'Invalid stream or encoding: \', u\'StatusContent\', u\'GetPresence-Request\', u\'binary(\', u\' mRetainInstance=\', u\'isFirstRun\', u\'org.ksoap2.serializat'
p60
sg5
S'CHANGED (JI 3.98%)'
p61
sg7
F3.98
sa(dp62
g3
S"\nDELETED set(['Lcom/google/android/apps/analytics/a;->CREATE_ITEM_EVENTS_TABLE Ljava/lang/String; [access_flags=private static final]\\n', 'Lcom/socialin/android/ui/share/SaveToSdCardDialogActivity;->b Landroid/widget/EditText; [access_flags=private]\\n', 'Lcom/socialin/android/gallery/view/GalleryPagerItemView;->e Lcom/socialin/android/gallery/view/ab; [access_flags=0x0]\\n', 'Lmyobfuscated/f/a;->a Lmyobfuscated/f/q; [access_flags=synthetic final]\\n', 'Lmyobfuscated/ba/m;->tag_item_text I [access_flags=public static final]\\n', 'Lcom/socialin/android/gallery/view/GalleryView;->m Z [access_flags=private]\\n', 'Lmyobfuscated/ba/m;->picasa_user_name I [access_flags=public static final]\\n', 'Lmyobfuscated/a/ae;->b Landroid/widget/TextView; [access_flags=private synthetic final]\\n', 'Lcom/picsart/effects/activity/o;->m Landroid/graphics/Paint; [access_flags=private]\\n', 'Lmyobfuscated/t/c;->gallery_frame_layout I [access_flags=public static final]\\n', 'Lmyobfuscated/a/bh;->b Landroid/widget/TextView; [a\n---\nADDED set(['La/a/a/a/a/y;->d Lorg/apache/http/conn/scheme/SocketFactory; [access_flags=private final]\\n', 'Lorg/xmlpull/v1/XmlPullParserFactory;->parserClasses Ljava/util/Vector; [access_flags=protected]\\n', 'Lcn/cf/shop_ele/ui/activities/MainActivity;->e Landroid/os/Handler; [access_flags=0x0]\\n', 'Lcom/caucho/hessian/io/Hessian2Input;->_sbuf Ljava/lang/StringBuffer; [access_flags=private]\\n', 'Lcn/cf/shop_ele/f/a/t;->a Landroid/content/Context; [access_flags=private]\\n', 'Lcn/cf/shop_ele/ui/activities/HistoryListActivity;->a Landroid/widget/ExpandableListAdapter; [access_flags=private]\\n', 'Lcn/cf/shop_ele/ui/activities/WebsiteActivity;->k Ljava/util/ArrayList; [access_flags=private]\\n', 'Lcn/cf/shop_ele/ui/runnables/DownloadRunnable;->b Z [access_flags=private]\\n', 'Lcn/cf/shop_ele/ui/activities/preferences/PreferencesActivity$5;->a Lcn/cf/shop_ele/ui/activities/preferences/PreferencesActivity; [access_flags=synthetic final]\\n', 'Lcn/cf/shop_ele/a/a;->c Ljava/util/List; [access_flags=priv"
p63
sg5
S'CHANGED (JI 1.38%)'
p64
sg7
F1.3799999999999999
sa.