(lp1
(dp2
S'detailed'
p3
S'EQUAL'
p4
sS'not_detailed'
p5
S'EQUAL'
p6
sS'score'
p7
I100
sa(dp8
g3
S'EQUAL'
p9
sg5
S'EQUAL'
p10
sg7
I100
sa(dp11
g3
S'EQUAL'
p12
sg5
S'EQUAL'
p13
sg7
I100
sa(dp14
g3
S'EQUAL'
p15
sg5
S'EQUAL'
p16
sg7
I100
sa(dp17
g3
S'EQUAL'
p18
sg5
S'EQUAL'
p19
sg7
I100
sa(dp20
g3
S'EQUAL'
p21
sg5
S'EQUAL'
p22
sg7
I100
sa(dp23
g3
S'EQUAL (JI 100%)'
p24
sg5
S'EQUAL (JI 100%)'
p25
sg7
I100
sa(dp26
g3
S'EQUAL'
p27
sg5
S'EQUAL'
p28
sg7
I100
sa(dp29
g3
S'DIFFERENT: Abduction! World Attack!=\xe5\xa5\xb6\xe7\x89\x9b\xe9\xa3\x9e\xe5\x91\x80\xe2\x80\x8b\xe2\x80\x8b\xe2\x80\x8b\xe2\x80\x8b\xe2\x80\x8b\xe2\x80\x8b\xe2\x80\x8b\xe2\x80\x8b\xe2\x80\x8b\xe2\x80\x8b\xe2\x80\x8b\xe2\x80\x8b\xe2\x80\x8b\xe2\x80\x8b\xe2\x80\x8b\xe2\x80\x8b\xe2\x80\x8b\xe2\x80\x8b\xe2\x80\x8b'
p30
sg5
S'CHANGED'
p31
sg7
I0
sa(dp32
g3
S'EQUAL (JI 100%)'
p33
sg5
S'EQUAL (JI 100%)'
p34
sg7
I100
sa(dp35
g3
S'EQUAL (JI 100%)'
p36
sg5
S'EQUAL (JI 100%)'
p37
sg7
I100
sa(dp38
g3
S'EQUAL (JI 100%)'
p39
sg5
S'EQUAL (JI 100%)'
p40
sg7
I100
sa(dp41
g3
S'EQUAL (JI 100%)'
p42
sg5
S'EQUAL (JI 100%)'
p43
sg7
I100
sa(dp44
g3
S'EQUAL (JI 100%)'
p45
sg5
S'EQUAL (JI 100%)'
p46
sg7
I100
sa(dp47
g3
S'EQUAL (JI 100%)'
p48
sg5
S'EQUAL (JI 100%)'
p49
sg7
I100
sa(dp50
g3
S'EQUAL (JI 100%)'
p51
sg5
S'EQUAL (JI 100%)'
p52
sg7
I100
sa(dp53
g3
S'EQUAL (JI 100%)'
p54
sg5
S'EQUAL (JI 100%)'
p55
sg7
I100
sa(dp56
g3
S'EQUAL (JI 100%)'
p57
sg5
S'EQUAL (JI 100%)'
p58
sg7
I100
sa(dp59
g3
S"\nDELETED set([u'Score more than 10,000 points', u'Post Online', u'Reach the top in less than 100 seconds', u'New World', u'Beat the tiger to win', u'Save 10 Space Camels', u'Fuji Heights', u'You are suddenly averse to turning left', u'Beat Wally to win', u'Tiger test', u'Putting on some weight? Reach the top...', u'Random rhinos', u'Penguin Pals', u'Restore Profile Backups from SD Card', u'Collect at least 7 falling gorillas', u'Reach the top in less than 44 seconds', u'Reach the top with mini platforms', u'You need to complete all challenges to unlock Custom mode!', u'Reach the top in less than 83 seconds', u'Score more than 16,000 points', u'Mountain Max', u'Ok', u'Eh?', u'Race the rhino to the top', u'Backup Success', u'Challenge Failed', u'Sheep Saviour', u'Beat the extraterrestrial ungulate', u' - not placed locally', u'Bull run', u'Constant Crumble', u'Reach the top before the pig', u'Save at least 6 lost cows', u'Beat the penguin to the top', u'Score more than 15,000 points', u'Space Goa\n---\nADDED set([u'\\u95ef\\u5173\\u5931\\u8d25', u'\\u5185\\u9646\\u8d85\\u901f', u'\\u4f60\\u80fd\\u6253\\u8d25\\u6d77\\u8c79\\u5230\\u8fbe\\u9876\\u90e8\\u5417?', u'\\u5220\\u9664', u'\\u4f60\\u4f1a\\u7a81\\u7136\\u7684\\u8f6c\\u5411\\u5de6\\u8fb9', u'\\u51fb\\u8d25\\u7535\\u8111\\u7ee7\\u7eed\\u524d\\u8fdb', u'\\u4ec5\\u672c\\u673a', u'\\u7ef5\\u7f8a\\u6551\\u661f', u'\\u65b0\\u5efa\\u6e38\\u620f\\u6863\\u6848', u'\\u5ca9\\u77f3\\u8270\\u8def', u'\\u5220\\u9664\\u5907\\u4efd', u'\\u9e7f\\u884c\\u65e0\\u7586', u'\\u4e0e\\u7280\\u725b\\u6bd4\\u6bd4\\u8c01\\u5148\\u5230\\u9876\\u90e8', u'60\\u79d2\\u5185\\u5230\\u8fbe\\u9876\\u90e8', u'\\u725b\\u53eb\\u5e73\\u53f0', u'\\u987b82\\u79d2\\u5185\\u5230\\u8fbe\\u9876\\u7aef', u'\\u5bcc\\u58eb\\u9ad8\\u5c71', u'\\u963f\\u5c14\\u5351\\u65af\\u4e4b\\u65c5', u'\\u968f\\u610f\\u7280\\u725b', u'\\u987b100\\u79d2\\u5185\\u5230\\u8fbe\\u9876\\u7aef', u'\\u654f\\u611f', u'\\u6311\\u6218\\u5931\\u8d25', u'\\u5f97\\u5206\\u8d85\\u8fc719000', u'\\u987b85\\u79d2\\u5185\\u5230\\u8fbe\\u9876\\u7aef', u'\\u70b8\\u5f39\\u5012\\u8ba1\\u65f6', u' \\u653e\\u5230\\u672c\\u5730', u'\\u5c0f\\u5c0f\\u5e73\\u53f0'"
p60
sg5
S'CHANGED (JI 37.52%)'
p61
sg7
F37.520000000000003
sa(dp62
g3
S'EQUAL (JI 100%)'
p63
sg5
S'EQUAL (JI 100%)'
p64
sg7
I100
sa.